	.file	"main.cpp"
	.text
	.section	.text$_ZnwyPv,"x"
	.linkonce discard
	.globl	_ZnwyPv
	.def	_ZnwyPv;	.scl	2;	.type	32;	.endef
	.seh_proc	_ZnwyPv
_ZnwyPv:
.LFB79:
	pushq	%rbp
	.seh_pushreg	%rbp
	movq	%rsp, %rbp
	.seh_setframe	%rbp, 0
	.seh_endprologue
	movq	%rcx, 16(%rbp)
	movq	%rdx, 24(%rbp)
	movq	24(%rbp), %rax
	popq	%rbp
	ret
	.seh_endproc
	.section	.text$_ZdlPvS_,"x"
	.linkonce discard
	.globl	_ZdlPvS_
	.def	_ZdlPvS_;	.scl	2;	.type	32;	.endef
	.seh_proc	_ZdlPvS_
_ZdlPvS_:
.LFB81:
	pushq	%rbp
	.seh_pushreg	%rbp
	movq	%rsp, %rbp
	.seh_setframe	%rbp, 0
	.seh_endprologue
	movq	%rcx, 16(%rbp)
	movq	%rdx, 24(%rbp)
	nop
	popq	%rbp
	ret
	.seh_endproc
	.section .rdata,"dr"
_ZStL19piecewise_construct:
	.space 1
	.section	.text$_ZSt4__lgx,"x"
	.linkonce discard
	.globl	_ZSt4__lgx
	.def	_ZSt4__lgx;	.scl	2;	.type	32;	.endef
	.seh_proc	_ZSt4__lgx
_ZSt4__lgx:
.LFB401:
	pushq	%rbp
	.seh_pushreg	%rbp
	movq	%rsp, %rbp
	.seh_setframe	%rbp, 0
	.seh_endprologue
	movq	%rcx, 16(%rbp)
	movq	16(%rbp), %rax
	bsrq	%rax, %rax
	xorq	$63, %rax
	cltq
	movl	$63, %edx
	subq	%rax, %rdx
	movq	%rdx, %rax
	popq	%rbp
	ret
	.seh_endproc
	.text
	.def	_ZL18__gthread_active_pv;	.scl	3;	.type	32;	.endef
	.seh_proc	_ZL18__gthread_active_pv
_ZL18__gthread_active_pv:
.LFB509:
	.seh_endprologue
	movl	$1, %eax
	ret
	.seh_endproc
	.def	_ZN9__gnu_cxxL18__exchange_and_addEPVii;	.scl	3;	.type	32;	.endef
	.seh_proc	_ZN9__gnu_cxxL18__exchange_and_addEPVii
_ZN9__gnu_cxxL18__exchange_and_addEPVii:
.LFB539:
	pushq	%rbp
	.seh_pushreg	%rbp
	movq	%rsp, %rbp
	.seh_setframe	%rbp, 0
	.seh_endprologue
	movq	%rcx, 16(%rbp)
	movl	%edx, 24(%rbp)
	movl	24(%rbp), %edx
	movq	16(%rbp), %rax
	lock xaddl	%edx, (%rax)
	movl	%edx, %eax
	popq	%rbp
	ret
	.seh_endproc
	.def	_ZN9__gnu_cxxL12__atomic_addEPVii;	.scl	3;	.type	32;	.endef
	.seh_proc	_ZN9__gnu_cxxL12__atomic_addEPVii
_ZN9__gnu_cxxL12__atomic_addEPVii:
.LFB540:
	pushq	%rbp
	.seh_pushreg	%rbp
	movq	%rsp, %rbp
	.seh_setframe	%rbp, 0
	.seh_endprologue
	movq	%rcx, 16(%rbp)
	movl	%edx, 24(%rbp)
	movl	24(%rbp), %edx
	movq	16(%rbp), %rax
	lock addl	%edx, (%rax)
	nop
	popq	%rbp
	ret
	.seh_endproc
	.def	_ZN9__gnu_cxxL25__exchange_and_add_singleEPii;	.scl	3;	.type	32;	.endef
	.seh_proc	_ZN9__gnu_cxxL25__exchange_and_add_singleEPii
_ZN9__gnu_cxxL25__exchange_and_add_singleEPii:
.LFB541:
	pushq	%rbp
	.seh_pushreg	%rbp
	movq	%rsp, %rbp
	.seh_setframe	%rbp, 0
	subq	$16, %rsp
	.seh_stackalloc	16
	.seh_endprologue
	movq	%rcx, 16(%rbp)
	movl	%edx, 24(%rbp)
	movq	16(%rbp), %rax
	movl	(%rax), %eax
	movl	%eax, -4(%rbp)
	movq	16(%rbp), %rax
	movl	(%rax), %edx
	movl	24(%rbp), %eax
	addl	%eax, %edx
	movq	16(%rbp), %rax
	movl	%edx, (%rax)
	movl	-4(%rbp), %eax
	addq	$16, %rsp
	popq	%rbp
	ret
	.seh_endproc
	.def	_ZN9__gnu_cxxL19__atomic_add_singleEPii;	.scl	3;	.type	32;	.endef
	.seh_proc	_ZN9__gnu_cxxL19__atomic_add_singleEPii
_ZN9__gnu_cxxL19__atomic_add_singleEPii:
.LFB542:
	pushq	%rbp
	.seh_pushreg	%rbp
	movq	%rsp, %rbp
	.seh_setframe	%rbp, 0
	.seh_endprologue
	movq	%rcx, 16(%rbp)
	movl	%edx, 24(%rbp)
	movq	16(%rbp), %rax
	movl	(%rax), %edx
	movl	24(%rbp), %eax
	addl	%eax, %edx
	movq	16(%rbp), %rax
	movl	%edx, (%rax)
	nop
	popq	%rbp
	ret
	.seh_endproc
	.def	_ZN9__gnu_cxxL27__exchange_and_add_dispatchEPii;	.scl	3;	.type	32;	.endef
	.seh_proc	_ZN9__gnu_cxxL27__exchange_and_add_dispatchEPii
_ZN9__gnu_cxxL27__exchange_and_add_dispatchEPii:
.LFB543:
	pushq	%rbp
	.seh_pushreg	%rbp
	movq	%rsp, %rbp
	.seh_setframe	%rbp, 0
	subq	$32, %rsp
	.seh_stackalloc	32
	.seh_endprologue
	movq	%rcx, 16(%rbp)
	movl	%edx, 24(%rbp)
	call	_ZL18__gthread_active_pv
	testl	%eax, %eax
	setne	%al
	testb	%al, %al
	je	.L15
	movl	24(%rbp), %eax
	movl	%eax, %edx
	movq	16(%rbp), %rcx
	call	_ZN9__gnu_cxxL18__exchange_and_addEPVii
	jmp	.L16
.L15:
	movl	24(%rbp), %eax
	movl	%eax, %edx
	movq	16(%rbp), %rcx
	call	_ZN9__gnu_cxxL25__exchange_and_add_singleEPii
	nop
.L16:
	addq	$32, %rsp
	popq	%rbp
	ret
	.seh_endproc
	.def	_ZN9__gnu_cxxL21__atomic_add_dispatchEPii;	.scl	3;	.type	32;	.endef
	.seh_proc	_ZN9__gnu_cxxL21__atomic_add_dispatchEPii
_ZN9__gnu_cxxL21__atomic_add_dispatchEPii:
.LFB544:
	pushq	%rbp
	.seh_pushreg	%rbp
	movq	%rsp, %rbp
	.seh_setframe	%rbp, 0
	subq	$32, %rsp
	.seh_stackalloc	32
	.seh_endprologue
	movq	%rcx, 16(%rbp)
	movl	%edx, 24(%rbp)
	call	_ZL18__gthread_active_pv
	testl	%eax, %eax
	setne	%al
	testb	%al, %al
	je	.L18
	movl	24(%rbp), %eax
	movl	%eax, %edx
	movq	16(%rbp), %rcx
	call	_ZN9__gnu_cxxL12__atomic_addEPVii
	jmp	.L20
.L18:
	movl	24(%rbp), %eax
	movl	%eax, %edx
	movq	16(%rbp), %rcx
	call	_ZN9__gnu_cxxL19__atomic_add_singleEPii
.L20:
	nop
	addq	$32, %rsp
	popq	%rbp
	ret
	.seh_endproc
	.section .rdata,"dr"
_ZStL13allocator_arg:
	.space 1
_ZStL6ignore:
	.space 1
	.section	.text$_ZN2sf15ContextSettingsC1Ejjjjjjb,"x"
	.linkonce discard
	.align 2
	.globl	_ZN2sf15ContextSettingsC1Ejjjjjjb
	.def	_ZN2sf15ContextSettingsC1Ejjjjjjb;	.scl	2;	.type	32;	.endef
	.seh_proc	_ZN2sf15ContextSettingsC1Ejjjjjjb
_ZN2sf15ContextSettingsC1Ejjjjjjb:
.LFB2645:
	pushq	%rbp
	.seh_pushreg	%rbp
	movq	%rsp, %rbp
	.seh_setframe	%rbp, 0
	subq	$16, %rsp
	.seh_stackalloc	16
	.seh_endprologue
	movq	%rcx, 16(%rbp)
	movl	%edx, 24(%rbp)
	movl	%r8d, 32(%rbp)
	movl	%r9d, 40(%rbp)
	movl	72(%rbp), %eax
	movb	%al, -4(%rbp)
	movq	16(%rbp), %rax
	movl	24(%rbp), %edx
	movl	%edx, (%rax)
	movq	16(%rbp), %rax
	movl	32(%rbp), %edx
	movl	%edx, 4(%rax)
	movq	16(%rbp), %rax
	movl	40(%rbp), %edx
	movl	%edx, 8(%rax)
	movq	16(%rbp), %rax
	movl	48(%rbp), %edx
	movl	%edx, 12(%rax)
	movq	16(%rbp), %rax
	movl	56(%rbp), %edx
	movl	%edx, 16(%rax)
	movq	16(%rbp), %rax
	movl	64(%rbp), %edx
	movl	%edx, 20(%rax)
	movq	16(%rbp), %rdx
	movzbl	-4(%rbp), %eax
	movb	%al, 24(%rdx)
	nop
	addq	$16, %rsp
	popq	%rbp
	ret
	.seh_endproc
	.section .rdata,"dr"
	.align 4
_ZN9__gnu_cxxL21__default_lock_policyE:
	.long	2
	.section	.text$_ZN4math7Vector2C1Eff,"x"
	.linkonce discard
	.align 2
	.globl	_ZN4math7Vector2C1Eff
	.def	_ZN4math7Vector2C1Eff;	.scl	2;	.type	32;	.endef
	.seh_proc	_ZN4math7Vector2C1Eff
_ZN4math7Vector2C1Eff:
.LFB4042:
	pushq	%rbp
	.seh_pushreg	%rbp
	movq	%rsp, %rbp
	.seh_setframe	%rbp, 0
	.seh_endprologue
	movq	%rcx, 16(%rbp)
	movss	%xmm1, 24(%rbp)
	movss	%xmm2, 32(%rbp)
	movq	16(%rbp), %rax
	movss	24(%rbp), %xmm0
	movss	%xmm0, (%rax)
	movq	16(%rbp), %rax
	movss	32(%rbp), %xmm0
	movss	%xmm0, 4(%rax)
	nop
	popq	%rbp
	ret
	.seh_endproc
	.section	.text$_ZN4math7Vector2plERKS0_,"x"
	.linkonce discard
	.align 2
	.globl	_ZN4math7Vector2plERKS0_
	.def	_ZN4math7Vector2plERKS0_;	.scl	2;	.type	32;	.endef
	.seh_proc	_ZN4math7Vector2plERKS0_
_ZN4math7Vector2plERKS0_:
.LFB4043:
	pushq	%rbp
	.seh_pushreg	%rbp
	movq	%rsp, %rbp
	.seh_setframe	%rbp, 0
	subq	$48, %rsp
	.seh_stackalloc	48
	.seh_endprologue
	movq	%rcx, 16(%rbp)
	movq	%rdx, 24(%rbp)
	movq	16(%rbp), %rax
	movss	4(%rax), %xmm1
	movq	24(%rbp), %rax
	movss	4(%rax), %xmm0
	movaps	%xmm1, %xmm2
	addss	%xmm0, %xmm2
	movq	16(%rbp), %rax
	movss	(%rax), %xmm1
	movq	24(%rbp), %rax
	movss	(%rax), %xmm0
	addss	%xmm1, %xmm0
	leaq	-8(%rbp), %rax
	movaps	%xmm0, %xmm1
	movq	%rax, %rcx
	call	_ZN4math7Vector2C1Eff
	movq	-8(%rbp), %rax
	addq	$48, %rsp
	popq	%rbp
	ret
	.seh_endproc
	.section	.text$_ZN4math7Vector2miERKS0_,"x"
	.linkonce discard
	.align 2
	.globl	_ZN4math7Vector2miERKS0_
	.def	_ZN4math7Vector2miERKS0_;	.scl	2;	.type	32;	.endef
	.seh_proc	_ZN4math7Vector2miERKS0_
_ZN4math7Vector2miERKS0_:
.LFB4044:
	pushq	%rbp
	.seh_pushreg	%rbp
	movq	%rsp, %rbp
	.seh_setframe	%rbp, 0
	subq	$48, %rsp
	.seh_stackalloc	48
	.seh_endprologue
	movq	%rcx, 16(%rbp)
	movq	%rdx, 24(%rbp)
	movq	16(%rbp), %rax
	movss	4(%rax), %xmm0
	movq	24(%rbp), %rax
	movss	4(%rax), %xmm1
	movaps	%xmm0, %xmm2
	subss	%xmm1, %xmm2
	movq	16(%rbp), %rax
	movss	(%rax), %xmm0
	movq	24(%rbp), %rax
	movss	(%rax), %xmm1
	subss	%xmm1, %xmm0
	leaq	-8(%rbp), %rax
	movaps	%xmm0, %xmm1
	movq	%rax, %rcx
	call	_ZN4math7Vector2C1Eff
	movq	-8(%rbp), %rax
	addq	$48, %rsp
	popq	%rbp
	ret
	.seh_endproc
	.section	.text$_ZN4math7Vector2mlEf,"x"
	.linkonce discard
	.align 2
	.globl	_ZN4math7Vector2mlEf
	.def	_ZN4math7Vector2mlEf;	.scl	2;	.type	32;	.endef
	.seh_proc	_ZN4math7Vector2mlEf
_ZN4math7Vector2mlEf:
.LFB4046:
	pushq	%rbp
	.seh_pushreg	%rbp
	movq	%rsp, %rbp
	.seh_setframe	%rbp, 0
	subq	$48, %rsp
	.seh_stackalloc	48
	.seh_endprologue
	movq	%rcx, 16(%rbp)
	movss	%xmm1, 24(%rbp)
	movq	16(%rbp), %rax
	movss	4(%rax), %xmm0
	movaps	%xmm0, %xmm1
	mulss	24(%rbp), %xmm1
	movq	16(%rbp), %rax
	movss	(%rax), %xmm0
	mulss	24(%rbp), %xmm0
	leaq	-8(%rbp), %rax
	movaps	%xmm1, %xmm2
	movaps	%xmm0, %xmm1
	movq	%rax, %rcx
	call	_ZN4math7Vector2C1Eff
	movq	-8(%rbp), %rax
	addq	$48, %rsp
	popq	%rbp
	ret
	.seh_endproc
	.section	.text$_ZN4math7Vector26lengthEv,"x"
	.linkonce discard
	.align 2
	.globl	_ZN4math7Vector26lengthEv
	.def	_ZN4math7Vector26lengthEv;	.scl	2;	.type	32;	.endef
	.seh_proc	_ZN4math7Vector26lengthEv
_ZN4math7Vector26lengthEv:
.LFB4052:
	pushq	%rbp
	.seh_pushreg	%rbp
	movq	%rsp, %rbp
	.seh_setframe	%rbp, 0
	subq	$48, %rsp
	.seh_stackalloc	48
	movaps	%xmm6, -16(%rbp)
	.seh_savexmm	%xmm6, 32
	.seh_endprologue
	movq	%rcx, 16(%rbp)
	movq	16(%rbp), %rax
	movl	(%rax), %eax
	movss	.LC0(%rip), %xmm1
	movd	%eax, %xmm0
	call	powf
	movaps	%xmm0, %xmm6
	movq	16(%rbp), %rax
	movl	4(%rax), %eax
	movss	.LC0(%rip), %xmm1
	movd	%eax, %xmm0
	call	powf
	addss	%xmm6, %xmm0
	call	sqrtf
	movaps	-16(%rbp), %xmm6
	addq	$48, %rsp
	popq	%rbp
	ret
	.seh_endproc
	.section	.text$_ZN4math7Vector27rotateREf,"x"
	.linkonce discard
	.align 2
	.globl	_ZN4math7Vector27rotateREf
	.def	_ZN4math7Vector27rotateREf;	.scl	2;	.type	32;	.endef
	.seh_proc	_ZN4math7Vector27rotateREf
_ZN4math7Vector27rotateREf:
.LFB4054:
	pushq	%rbp
	.seh_pushreg	%rbp
	movq	%rsp, %rbp
	.seh_setframe	%rbp, 0
	subq	$80, %rsp
	.seh_stackalloc	80
	movaps	%xmm6, -32(%rbp)
	.seh_savexmm	%xmm6, 48
	movaps	%xmm7, -16(%rbp)
	.seh_savexmm	%xmm7, 64
	.seh_endprologue
	movq	%rcx, 16(%rbp)
	movss	%xmm1, 24(%rbp)
	movq	16(%rbp), %rax
	movss	(%rax), %xmm0
	cvtss2sd	%xmm0, %xmm6
	cvtss2sd	24(%rbp), %xmm0
	call	cos
	mulsd	%xmm0, %xmm6
	movq	16(%rbp), %rax
	movss	4(%rax), %xmm0
	cvtss2sd	%xmm0, %xmm7
	cvtss2sd	24(%rbp), %xmm0
	call	sin
	mulsd	%xmm7, %xmm0
	subsd	%xmm0, %xmm6
	movapd	%xmm6, %xmm0
	cvtsd2ss	%xmm0, %xmm2
	movss	%xmm2, -36(%rbp)
	movq	16(%rbp), %rax
	movss	(%rax), %xmm0
	cvtss2sd	%xmm0, %xmm6
	cvtss2sd	24(%rbp), %xmm0
	call	sin
	mulsd	%xmm0, %xmm6
	movq	16(%rbp), %rax
	movss	4(%rax), %xmm0
	cvtss2sd	%xmm0, %xmm7
	cvtss2sd	24(%rbp), %xmm0
	call	cos
	mulsd	%xmm7, %xmm0
	addsd	%xmm6, %xmm0
	cvtsd2ss	%xmm0, %xmm3
	movss	%xmm3, -40(%rbp)
	movq	16(%rbp), %rax
	movss	-36(%rbp), %xmm0
	movss	%xmm0, (%rax)
	movq	16(%rbp), %rax
	movss	-40(%rbp), %xmm0
	movss	%xmm0, 4(%rax)
	nop
	movaps	-32(%rbp), %xmm6
	movaps	-16(%rbp), %xmm7
	addq	$80, %rsp
	popq	%rbp
	ret
	.seh_endproc
	.section .rdata,"dr"
.LC1:
	.ascii "[\0"
.LC2:
	.ascii ", \0"
.LC3:
	.ascii "]\0"
	.text
	.globl	_ZN4mathlsERSoRKNS_7Vector2E
	.def	_ZN4mathlsERSoRKNS_7Vector2E;	.scl	2;	.type	32;	.endef
	.seh_proc	_ZN4mathlsERSoRKNS_7Vector2E
_ZN4mathlsERSoRKNS_7Vector2E:
.LFB4057:
	pushq	%rbp
	.seh_pushreg	%rbp
	movq	%rsp, %rbp
	.seh_setframe	%rbp, 0
	subq	$32, %rsp
	.seh_stackalloc	32
	.seh_endprologue
	movq	%rcx, 16(%rbp)
	movq	%rdx, 24(%rbp)
	leaq	.LC1(%rip), %rdx
	movq	16(%rbp), %rcx
	call	_ZStlsISt11char_traitsIcEERSt13basic_ostreamIcT_ES5_PKc
	movq	%rax, %rdx
	movq	24(%rbp), %rax
	movss	(%rax), %xmm0
	movaps	%xmm0, %xmm1
	movq	%rdx, %rcx
	call	_ZNSolsEf
	leaq	.LC2(%rip), %rdx
	movq	%rax, %rcx
	call	_ZStlsISt11char_traitsIcEERSt13basic_ostreamIcT_ES5_PKc
	movq	%rax, %rdx
	movq	24(%rbp), %rax
	movss	4(%rax), %xmm0
	movaps	%xmm0, %xmm1
	movq	%rdx, %rcx
	call	_ZNSolsEf
	leaq	.LC3(%rip), %rdx
	movq	%rax, %rcx
	call	_ZStlsISt11char_traitsIcEERSt13basic_ostreamIcT_ES5_PKc
	movq	16(%rbp), %rax
	addq	$32, %rsp
	popq	%rbp
	ret
	.seh_endproc
	.globl	_ZN4math11make_vectorEiiii
	.def	_ZN4math11make_vectorEiiii;	.scl	2;	.type	32;	.endef
	.seh_proc	_ZN4math11make_vectorEiiii
_ZN4math11make_vectorEiiii:
.LFB4058:
	pushq	%rbp
	.seh_pushreg	%rbp
	movq	%rsp, %rbp
	.seh_setframe	%rbp, 0
	subq	$48, %rsp
	.seh_stackalloc	48
	.seh_endprologue
	movl	%ecx, 16(%rbp)
	movl	%edx, 24(%rbp)
	movl	%r8d, 32(%rbp)
	movl	%r9d, 40(%rbp)
	movl	40(%rbp), %eax
	subl	24(%rbp), %eax
	cvtsi2ss	%eax, %xmm1
	movl	32(%rbp), %eax
	subl	16(%rbp), %eax
	cvtsi2ss	%eax, %xmm0
	leaq	-8(%rbp), %rax
	movaps	%xmm1, %xmm2
	movaps	%xmm0, %xmm1
	movq	%rax, %rcx
	call	_ZN4math7Vector2C1Eff
	movq	-8(%rbp), %rax
	addq	$48, %rsp
	popq	%rbp
	ret
	.seh_endproc
	.globl	_ZN4math11make_vectorERKNS_7Vector2ES2_
	.def	_ZN4math11make_vectorERKNS_7Vector2ES2_;	.scl	2;	.type	32;	.endef
	.seh_proc	_ZN4math11make_vectorERKNS_7Vector2ES2_
_ZN4math11make_vectorERKNS_7Vector2ES2_:
.LFB4059:
	pushq	%rbp
	.seh_pushreg	%rbp
	movq	%rsp, %rbp
	.seh_setframe	%rbp, 0
	subq	$48, %rsp
	.seh_stackalloc	48
	.seh_endprologue
	movq	%rcx, 16(%rbp)
	movq	%rdx, 24(%rbp)
	movq	24(%rbp), %rax
	movss	4(%rax), %xmm0
	movq	16(%rbp), %rax
	movss	4(%rax), %xmm1
	movaps	%xmm0, %xmm2
	subss	%xmm1, %xmm2
	movq	24(%rbp), %rax
	movss	(%rax), %xmm0
	movq	16(%rbp), %rax
	movss	(%rax), %xmm1
	subss	%xmm1, %xmm0
	leaq	-8(%rbp), %rax
	movaps	%xmm0, %xmm1
	movq	%rax, %rcx
	call	_ZN4math7Vector2C1Eff
	movq	-8(%rbp), %rax
	addq	$48, %rsp
	popq	%rbp
	ret
	.seh_endproc
	.globl	_ZN4math11make_vectorESt5arrayIiLy2EES1_
	.def	_ZN4math11make_vectorESt5arrayIiLy2EES1_;	.scl	2;	.type	32;	.endef
	.seh_proc	_ZN4math11make_vectorESt5arrayIiLy2EES1_
_ZN4math11make_vectorESt5arrayIiLy2EES1_:
.LFB4060:
	pushq	%rbp
	.seh_pushreg	%rbp
	pushq	%rbx
	.seh_pushreg	%rbx
	subq	$72, %rsp
	.seh_stackalloc	72
	leaq	128(%rsp), %rbp
	.seh_setframe	%rbp, 128
	movaps	%xmm6, -80(%rbp)
	.seh_savexmm	%xmm6, 48
	.seh_endprologue
	movq	%rcx, -32(%rbp)
	movq	%rdx, -24(%rbp)
	leaq	-24(%rbp), %rax
	movl	$1, %edx
	movq	%rax, %rcx
	call	_ZNSt5arrayIiLy2EEixEy
	movl	(%rax), %ebx
	movl	$1, %edx
	leaq	-32(%rbp), %rcx
	call	_ZNSt5arrayIiLy2EEixEy
	movl	(%rax), %eax
	subl	%eax, %ebx
	movl	%ebx, %eax
	cvtsi2ss	%eax, %xmm6
	leaq	-24(%rbp), %rax
	movl	$0, %edx
	movq	%rax, %rcx
	call	_ZNSt5arrayIiLy2EEixEy
	movl	(%rax), %ebx
	movl	$0, %edx
	leaq	-32(%rbp), %rcx
	call	_ZNSt5arrayIiLy2EEixEy
	movl	(%rax), %eax
	subl	%eax, %ebx
	movl	%ebx, %eax
	cvtsi2ss	%eax, %xmm0
	leaq	-88(%rbp), %rax
	movaps	%xmm6, %xmm2
	movaps	%xmm0, %xmm1
	movq	%rax, %rcx
	call	_ZN4math7Vector2C1Eff
	movq	-88(%rbp), %rax
	movaps	-80(%rbp), %xmm6
	addq	$72, %rsp
	popq	%rbx
	popq	%rbp
	ret
	.seh_endproc
	.section	.text$_ZN4EdgeC1Eiiii,"x"
	.linkonce discard
	.align 2
	.globl	_ZN4EdgeC1Eiiii
	.def	_ZN4EdgeC1Eiiii;	.scl	2;	.type	32;	.endef
	.seh_proc	_ZN4EdgeC1Eiiii
_ZN4EdgeC1Eiiii:
.LFB4063:
	pushq	%rbp
	.seh_pushreg	%rbp
	movq	%rsp, %rbp
	.seh_setframe	%rbp, 0
	subq	$32, %rsp
	.seh_stackalloc	32
	.seh_endprologue
	movq	%rcx, 16(%rbp)
	movl	%edx, 24(%rbp)
	movl	%r8d, 32(%rbp)
	movl	%r9d, 40(%rbp)
	movq	16(%rbp), %rax
	cvtsi2ss	32(%rbp), %xmm1
	cvtsi2ss	24(%rbp), %xmm0
	movaps	%xmm1, %xmm2
	movaps	%xmm0, %xmm1
	movq	%rax, %rcx
	call	_ZN4math7Vector2C1Eff
	movq	16(%rbp), %rax
	addq	$8, %rax
	cvtsi2ss	48(%rbp), %xmm1
	cvtsi2ss	40(%rbp), %xmm0
	movaps	%xmm1, %xmm2
	movaps	%xmm0, %xmm1
	movq	%rax, %rcx
	call	_ZN4math7Vector2C1Eff
	nop
	addq	$32, %rsp
	popq	%rbp
	ret
	.seh_endproc
	.section	.text$_ZNSt12__shared_ptrI4EdgeLN9__gnu_cxx12_Lock_policyE2EED2Ev,"x"
	.linkonce discard
	.align 2
	.globl	_ZNSt12__shared_ptrI4EdgeLN9__gnu_cxx12_Lock_policyE2EED2Ev
	.def	_ZNSt12__shared_ptrI4EdgeLN9__gnu_cxx12_Lock_policyE2EED2Ev;	.scl	2;	.type	32;	.endef
	.seh_proc	_ZNSt12__shared_ptrI4EdgeLN9__gnu_cxx12_Lock_policyE2EED2Ev
_ZNSt12__shared_ptrI4EdgeLN9__gnu_cxx12_Lock_policyE2EED2Ev:
.LFB4066:
	pushq	%rbp
	.seh_pushreg	%rbp
	movq	%rsp, %rbp
	.seh_setframe	%rbp, 0
	subq	$32, %rsp
	.seh_stackalloc	32
	.seh_endprologue
	movq	%rcx, 16(%rbp)
	movq	16(%rbp), %rax
	addq	$8, %rax
	movq	%rax, %rcx
	call	_ZNSt14__shared_countILN9__gnu_cxx12_Lock_policyE2EED1Ev
	nop
	addq	$32, %rsp
	popq	%rbp
	ret
	.seh_endproc
	.section	.text$_ZNSt10shared_ptrI4EdgeED1Ev,"x"
	.linkonce discard
	.align 2
	.globl	_ZNSt10shared_ptrI4EdgeED1Ev
	.def	_ZNSt10shared_ptrI4EdgeED1Ev;	.scl	2;	.type	32;	.endef
	.seh_proc	_ZNSt10shared_ptrI4EdgeED1Ev
_ZNSt10shared_ptrI4EdgeED1Ev:
.LFB4069:
	pushq	%rbp
	.seh_pushreg	%rbp
	movq	%rsp, %rbp
	.seh_setframe	%rbp, 0
	subq	$32, %rsp
	.seh_stackalloc	32
	.seh_endprologue
	movq	%rcx, 16(%rbp)
	movq	16(%rbp), %rax
	movq	%rax, %rcx
	call	_ZNSt12__shared_ptrI4EdgeLN9__gnu_cxx12_Lock_policyE2EED2Ev
	nop
	addq	$32, %rsp
	popq	%rbp
	ret
	.seh_endproc
	.section	.text$_ZNSt14__shared_countILN9__gnu_cxx12_Lock_policyE2EEC1Ev,"x"
	.linkonce discard
	.align 2
	.globl	_ZNSt14__shared_countILN9__gnu_cxx12_Lock_policyE2EEC1Ev
	.def	_ZNSt14__shared_countILN9__gnu_cxx12_Lock_policyE2EEC1Ev;	.scl	2;	.type	32;	.endef
	.seh_proc	_ZNSt14__shared_countILN9__gnu_cxx12_Lock_policyE2EEC1Ev
_ZNSt14__shared_countILN9__gnu_cxx12_Lock_policyE2EEC1Ev:
.LFB4078:
	pushq	%rbp
	.seh_pushreg	%rbp
	movq	%rsp, %rbp
	.seh_setframe	%rbp, 0
	.seh_endprologue
	movq	%rcx, 16(%rbp)
	movq	16(%rbp), %rax
	movq	$0, (%rax)
	nop
	popq	%rbp
	ret
	.seh_endproc
	.section	.text$_ZN4DrawC1Eiii,"x"
	.linkonce discard
	.align 2
	.globl	_ZN4DrawC1Eiii
	.def	_ZN4DrawC1Eiii;	.scl	2;	.type	32;	.endef
	.seh_proc	_ZN4DrawC1Eiii
_ZN4DrawC1Eiii:
.LFB4081:
	pushq	%rbp
	.seh_pushreg	%rbp
	movq	%rsp, %rbp
	.seh_setframe	%rbp, 0
	.seh_endprologue
	movq	%rcx, 16(%rbp)
	movl	%edx, 24(%rbp)
	movl	%r8d, 32(%rbp)
	movl	%r9d, 40(%rbp)
	movq	16(%rbp), %rax
	movl	24(%rbp), %edx
	movl	%edx, (%rax)
	movq	16(%rbp), %rax
	movl	32(%rbp), %edx
	movl	%edx, 4(%rax)
	movq	16(%rbp), %rax
	movl	40(%rbp), %edx
	movl	%edx, 8(%rax)
	nop
	popq	%rbp
	ret
	.seh_endproc
	.section	.text$_ZN4Draw14draw_trianglesERN2sf12RenderWindowERKSt6vectorISt5arrayIfLy3EESaIS5_EERKNS0_7Vector2IfEE,"x"
	.linkonce discard
	.align 2
	.globl	_ZN4Draw14draw_trianglesERN2sf12RenderWindowERKSt6vectorISt5arrayIfLy3EESaIS5_EERKNS0_7Vector2IfEE
	.def	_ZN4Draw14draw_trianglesERN2sf12RenderWindowERKSt6vectorISt5arrayIfLy3EESaIS5_EERKNS0_7Vector2IfEE;	.scl	2;	.type	32;	.endef
	.seh_proc	_ZN4Draw14draw_trianglesERN2sf12RenderWindowERKSt6vectorISt5arrayIfLy3EESaIS5_EERKNS0_7Vector2IfEE
_ZN4Draw14draw_trianglesERN2sf12RenderWindowERKSt6vectorISt5arrayIfLy3EESaIS5_EERKNS0_7Vector2IfEE:
.LFB4084:
	pushq	%rbp
	.seh_pushreg	%rbp
	pushq	%rsi
	.seh_pushreg	%rsi
	pushq	%rbx
	.seh_pushreg	%rbx
	movq	%rsp, %rbp
	.seh_setframe	%rbp, 0
	subq	$192, %rsp
	.seh_stackalloc	192
	movaps	%xmm6, -16(%rbp)
	.seh_savexmm	%xmm6, 176
	.seh_endprologue
	movq	%rcx, 32(%rbp)
	movq	%rdx, 40(%rbp)
	movq	%r8, 48(%rbp)
	movq	%r9, 56(%rbp)
	movq	48(%rbp), %rax
	movq	%rax, %rcx
	call	_ZNKSt6vectorISt5arrayIfLy3EESaIS1_EE5emptyEv
	testb	%al, %al
	jne	.L54
	movq	56(%rbp), %rdx
	leaq	-80(%rbp), %rax
	movq	%rax, %rcx
	movq	__imp__ZN2sf6VertexC1ERKNS_7Vector2IfEE(%rip), %rax
.LEHB0:
	call	*%rax
.LEHE0:
	leaq	-80(%rbp), %rax
	movq	%rax, %rbx
	movl	$1, %esi
	leaq	-49(%rbp), %rax
	movq	%rax, %rcx
	call	_ZNSaIN2sf6VertexEEC1Ev
	movq	%rbx, -144(%rbp)
	movq	%rsi, -136(%rbp)
	leaq	-49(%rbp), %rcx
	leaq	-144(%rbp), %rdx
	leaq	-112(%rbp), %rax
	movq	%rcx, %r8
	movq	%rax, %rcx
.LEHB1:
	call	_ZNSt6vectorIN2sf6VertexESaIS1_EEC1ESt16initializer_listIS1_ERKS2_
.LEHE1:
	leaq	-49(%rbp), %rax
	movq	%rax, %rcx
	call	_ZNSaIN2sf6VertexEED1Ev
	movq	48(%rbp), %rax
	movq	%rax, %rcx
	call	_ZNKSt6vectorISt5arrayIfLy3EESaIS1_EE4sizeEv
	leaq	2(%rax), %rdx
	leaq	-112(%rbp), %rax
	movq	%rax, %rcx
.LEHB2:
	call	_ZNSt6vectorIN2sf6VertexESaIS1_EE7reserveEy
	movq	48(%rbp), %rax
	movq	%rax, -24(%rbp)
	movq	-24(%rbp), %rax
	movq	%rax, %rcx
	call	_ZNKSt6vectorISt5arrayIfLy3EESaIS1_EE5beginEv
	movq	%rax, -120(%rbp)
	movq	-24(%rbp), %rax
	movq	%rax, %rcx
	call	_ZNKSt6vectorISt5arrayIfLy3EESaIS1_EE3endEv
	movq	%rax, -128(%rbp)
.L49:
	leaq	-128(%rbp), %rdx
	leaq	-120(%rbp), %rax
	movq	%rax, %rcx
	call	_ZN9__gnu_cxxneIPKSt5arrayIfLy3EESt6vectorIS2_SaIS2_EEEEbRKNS_17__normal_iteratorIT_T0_EESD_
	testb	%al, %al
	je	.L48
	leaq	-120(%rbp), %rax
	movq	%rax, %rcx
	call	_ZNK9__gnu_cxx17__normal_iteratorIPKSt5arrayIfLy3EESt6vectorIS2_SaIS2_EEEdeEv
	movq	%rax, -32(%rbp)
	movq	-32(%rbp), %rax
	movl	$1, %edx
	movq	%rax, %rcx
	call	_ZNKSt5arrayIfLy3EEixEy
	movss	(%rax), %xmm6
	movq	-32(%rbp), %rax
	movl	$0, %edx
	movq	%rax, %rcx
	call	_ZNKSt5arrayIfLy3EEixEy
	movss	(%rax), %xmm0
	leaq	-48(%rbp), %rax
	movaps	%xmm6, %xmm2
	movaps	%xmm0, %xmm1
	movq	%rax, %rcx
	call	_ZN2sf7Vector2IfEC1Eff
	leaq	-48(%rbp), %rdx
	leaq	-112(%rbp), %rax
	movq	%rax, %rcx
	call	_ZNSt6vectorIN2sf6VertexESaIS1_EE12emplace_backIJNS0_7Vector2IfEEEEEvDpOT_
	leaq	-120(%rbp), %rax
	movq	%rax, %rcx
	call	_ZN9__gnu_cxx17__normal_iteratorIPKSt5arrayIfLy3EESt6vectorIS2_SaIS2_EEEppEv
	jmp	.L49
.L48:
	movq	48(%rbp), %rax
	movl	$0, %edx
	movq	%rax, %rcx
	call	_ZNKSt6vectorISt5arrayIfLy3EESaIS1_EEixEy
	movl	$1, %edx
	movq	%rax, %rcx
	call	_ZNKSt5arrayIfLy3EEixEy
	movss	(%rax), %xmm6
	movq	48(%rbp), %rax
	movl	$0, %edx
	movq	%rax, %rcx
	call	_ZNKSt6vectorISt5arrayIfLy3EESaIS1_EEixEy
	movl	$0, %edx
	movq	%rax, %rcx
	call	_ZNKSt5arrayIfLy3EEixEy
	movss	(%rax), %xmm0
	leaq	-40(%rbp), %rax
	movaps	%xmm6, %xmm2
	movaps	%xmm0, %xmm1
	movq	%rax, %rcx
	call	_ZN2sf7Vector2IfEC1Eff
	leaq	-40(%rbp), %rdx
	leaq	-112(%rbp), %rax
	movq	%rax, %rcx
	call	_ZNSt6vectorIN2sf6VertexESaIS1_EE12emplace_backIJNS0_7Vector2IfEEEEEvDpOT_
	movq	40(%rbp), %rax
	leaq	48(%rax), %rbx
	leaq	-112(%rbp), %rax
	movq	%rax, %rcx
	call	_ZNKSt6vectorIN2sf6VertexESaIS1_EE4sizeEv
	movq	%rax, %rsi
	leaq	-112(%rbp), %rax
	movl	$0, %edx
	movq	%rax, %rcx
	call	_ZNSt6vectorIN2sf6VertexESaIS1_EEixEy
	movq	%rax, %rdx
	movq	__imp__ZN2sf12RenderStates7DefaultE(%rip), %rax
	movq	%rax, 32(%rsp)
	movl	$5, %r9d
	movq	%rsi, %r8
	movq	%rbx, %rcx
	movq	__imp__ZN2sf12RenderTarget4drawEPKNS_6VertexEyNS_13PrimitiveTypeERKNS_12RenderStatesE(%rip), %rax
	call	*%rax
.LEHE2:
	leaq	-112(%rbp), %rax
	movq	%rax, %rcx
	call	_ZNSt6vectorIN2sf6VertexESaIS1_EED1Ev
	jmp	.L45
.L52:
	movq	%rax, %rbx
	leaq	-49(%rbp), %rax
	movq	%rax, %rcx
	call	_ZNSaIN2sf6VertexEED1Ev
	movq	%rbx, %rax
	movq	%rax, %rcx
.LEHB3:
	call	_Unwind_Resume
.L53:
	movq	%rax, %rbx
	leaq	-112(%rbp), %rax
	movq	%rax, %rcx
	call	_ZNSt6vectorIN2sf6VertexESaIS1_EED1Ev
	movq	%rbx, %rax
	movq	%rax, %rcx
	call	_Unwind_Resume
.LEHE3:
.L54:
	nop
.L45:
	movaps	-16(%rbp), %xmm6
	addq	$192, %rsp
	popq	%rbx
	popq	%rsi
	popq	%rbp
	ret
	.def	__gxx_personality_seh0;	.scl	2;	.type	32;	.endef
	.seh_handler	__gxx_personality_seh0, @unwind, @except
	.seh_handlerdata
.LLSDA4084:
	.byte	0xff
	.byte	0xff
	.byte	0x1
	.uleb128 .LLSDACSE4084-.LLSDACSB4084
.LLSDACSB4084:
	.uleb128 .LEHB0-.LFB4084
	.uleb128 .LEHE0-.LEHB0
	.uleb128 0
	.uleb128 0
	.uleb128 .LEHB1-.LFB4084
	.uleb128 .LEHE1-.LEHB1
	.uleb128 .L52-.LFB4084
	.uleb128 0
	.uleb128 .LEHB2-.LFB4084
	.uleb128 .LEHE2-.LEHB2
	.uleb128 .L53-.LFB4084
	.uleb128 0
	.uleb128 .LEHB3-.LFB4084
	.uleb128 .LEHE3-.LEHB3
	.uleb128 0
	.uleb128 0
.LLSDACSE4084:
	.section	.text$_ZN4Draw14draw_trianglesERN2sf12RenderWindowERKSt6vectorISt5arrayIfLy3EESaIS5_EERKNS0_7Vector2IfEE,"x"
	.linkonce discard
	.seh_endproc
	.section	.text$_ZN4Draw10draw_edgesERN2sf12RenderWindowERSt6vectorISt10shared_ptrI4EdgeESaIS6_EE,"x"
	.linkonce discard
	.align 2
	.globl	_ZN4Draw10draw_edgesERN2sf12RenderWindowERSt6vectorISt10shared_ptrI4EdgeESaIS6_EE
	.def	_ZN4Draw10draw_edgesERN2sf12RenderWindowERSt6vectorISt10shared_ptrI4EdgeESaIS6_EE;	.scl	2;	.type	32;	.endef
	.seh_proc	_ZN4Draw10draw_edgesERN2sf12RenderWindowERSt6vectorISt10shared_ptrI4EdgeESaIS6_EE
_ZN4Draw10draw_edgesERN2sf12RenderWindowERSt6vectorISt10shared_ptrI4EdgeESaIS6_EE:
.LFB4085:
	pushq	%rbp
	.seh_pushreg	%rbp
	pushq	%rsi
	.seh_pushreg	%rsi
	pushq	%rbx
	.seh_pushreg	%rbx
	subq	$864, %rsp
	.seh_stackalloc	864
	leaq	128(%rsp), %rbp
	.seh_setframe	%rbp, 128
	movaps	%xmm6, 720(%rbp)
	.seh_savexmm	%xmm6, 848
	.seh_endprologue
	movq	%rcx, 768(%rbp)
	movq	%rdx, 776(%rbp)
	movq	%r8, 784(%rbp)
	leaq	640(%rbp), %rax
	movq	%rax, %rcx
	call	_ZNSt6vectorIN2sf6VertexESaIS1_EEC1Ev
	movq	784(%rbp), %rax
	movq	%rax, %rcx
	call	_ZNKSt6vectorISt10shared_ptrI4EdgeESaIS2_EE4sizeEv
	leaq	(%rax,%rax), %rdx
	leaq	640(%rbp), %rax
	movq	%rax, %rcx
.LEHB4:
	call	_ZNSt6vectorIN2sf6VertexESaIS1_EE7reserveEy
.LEHE4:
	movq	784(%rbp), %rax
	movq	%rax, 712(%rbp)
	movq	712(%rbp), %rax
	movq	%rax, %rcx
	call	_ZNSt6vectorISt10shared_ptrI4EdgeESaIS2_EE5beginEv
	movq	%rax, 632(%rbp)
	movq	712(%rbp), %rax
	movq	%rax, %rcx
	call	_ZNSt6vectorISt10shared_ptrI4EdgeESaIS2_EE3endEv
	movq	%rax, 624(%rbp)
.L57:
	leaq	624(%rbp), %rdx
	leaq	632(%rbp), %rax
	movq	%rax, %rcx
	call	_ZN9__gnu_cxxneIPSt10shared_ptrI4EdgeESt6vectorIS3_SaIS3_EEEEbRKNS_17__normal_iteratorIT_T0_EESD_
	testb	%al, %al
	je	.L56
	leaq	632(%rbp), %rax
	movq	%rax, %rcx
	call	_ZNK9__gnu_cxx17__normal_iteratorIPSt10shared_ptrI4EdgeESt6vectorIS3_SaIS3_EEEdeEv
	movq	%rax, 704(%rbp)
	movq	704(%rbp), %rax
	movq	%rax, %rcx
	call	_ZNKSt19__shared_ptr_accessI4EdgeLN9__gnu_cxx12_Lock_policyE2ELb0ELb0EEptEv
	movss	4(%rax), %xmm6
	movq	704(%rbp), %rax
	movq	%rax, %rcx
	call	_ZNKSt19__shared_ptr_accessI4EdgeLN9__gnu_cxx12_Lock_policyE2ELb0ELb0EEptEv
	movss	(%rax), %xmm0
	leaq	664(%rbp), %rax
	movaps	%xmm6, %xmm2
	movaps	%xmm0, %xmm1
	movq	%rax, %rcx
	call	_ZN2sf7Vector2IfEC1Eff
	movq	__imp__ZN2sf5Color3RedE(%rip), %rcx
	leaq	664(%rbp), %rdx
	leaq	640(%rbp), %rax
	movq	%rcx, %r8
	movq	%rax, %rcx
.LEHB5:
	call	_ZNSt6vectorIN2sf6VertexESaIS1_EE12emplace_backIJNS0_7Vector2IfEERKNS0_5ColorEEEEvDpOT_
	movq	704(%rbp), %rax
	movq	%rax, %rcx
	call	_ZNKSt19__shared_ptr_accessI4EdgeLN9__gnu_cxx12_Lock_policyE2ELb0ELb0EEptEv
	movss	12(%rax), %xmm6
	movq	704(%rbp), %rax
	movq	%rax, %rcx
	call	_ZNKSt19__shared_ptr_accessI4EdgeLN9__gnu_cxx12_Lock_policyE2ELb0ELb0EEptEv
	movss	8(%rax), %xmm0
	leaq	672(%rbp), %rax
	movaps	%xmm6, %xmm2
	movaps	%xmm0, %xmm1
	movq	%rax, %rcx
	call	_ZN2sf7Vector2IfEC1Eff
	movq	__imp__ZN2sf5Color3RedE(%rip), %rcx
	leaq	672(%rbp), %rdx
	leaq	640(%rbp), %rax
	movq	%rcx, %r8
	movq	%rax, %rcx
	call	_ZNSt6vectorIN2sf6VertexESaIS1_EE12emplace_backIJNS0_7Vector2IfEERKNS0_5ColorEEEEvDpOT_
	movl	$3, 700(%rbp)
	movl	$5, 696(%rbp)
	movl	696(%rbp), %eax
	movslq	%eax, %rdx
	cvtsi2ss	700(%rbp), %xmm0
	leaq	-80(%rbp), %rax
	movq	%rdx, %r8
	movaps	%xmm0, %xmm1
	movq	%rax, %rcx
	movq	__imp__ZN2sf11CircleShapeC1Efy(%rip), %rax
	call	*%rax
.LEHE5:
	movq	__imp__ZN2sf5Color4CyanE(%rip), %rdx
	leaq	-80(%rbp), %rax
	movq	%rax, %rcx
	movq	__imp__ZN2sf5Shape12setFillColorERKNS_5ColorE(%rip), %rax
.LEHB6:
	call	*%rax
	movq	704(%rbp), %rax
	movq	%rax, %rcx
	call	_ZNKSt19__shared_ptr_accessI4EdgeLN9__gnu_cxx12_Lock_policyE2ELb0ELb0EEptEv
	movss	4(%rax), %xmm6
	movq	704(%rbp), %rax
	movq	%rax, %rcx
	call	_ZNKSt19__shared_ptr_accessI4EdgeLN9__gnu_cxx12_Lock_policyE2ELb0ELb0EEptEv
	movss	(%rax), %xmm0
	leaq	680(%rbp), %rax
	movaps	%xmm6, %xmm2
	movaps	%xmm0, %xmm1
	movq	%rax, %rcx
	call	_ZN2sf7Vector2IfEC1Eff
	leaq	680(%rbp), %rax
	leaq	-80(%rbp), %rdx
	leaq	8(%rdx), %rcx
	movq	%rax, %rdx
	movq	__imp__ZN2sf13Transformable11setPositionERKNS_7Vector2IfEE(%rip), %rax
	call	*%rax
	cvtsi2ss	700(%rbp), %xmm1
	cvtsi2ss	700(%rbp), %xmm0
	leaq	-80(%rbp), %rax
	addq	$8, %rax
	movaps	%xmm1, %xmm2
	movaps	%xmm0, %xmm1
	movq	%rax, %rcx
	movq	__imp__ZN2sf13Transformable9setOriginEff(%rip), %rax
	call	*%rax
	movl	696(%rbp), %eax
	movslq	%eax, %rdx
	cvtsi2ss	700(%rbp), %xmm0
	leaq	272(%rbp), %rax
	movq	%rdx, %r8
	movaps	%xmm0, %xmm1
	movq	%rax, %rcx
	movq	__imp__ZN2sf11CircleShapeC1Efy(%rip), %rax
	call	*%rax
.LEHE6:
	movq	__imp__ZN2sf5Color4CyanE(%rip), %rdx
	leaq	272(%rbp), %rax
	movq	%rax, %rcx
	movq	__imp__ZN2sf5Shape12setFillColorERKNS_5ColorE(%rip), %rax
.LEHB7:
	call	*%rax
	movq	704(%rbp), %rax
	movq	%rax, %rcx
	call	_ZNKSt19__shared_ptr_accessI4EdgeLN9__gnu_cxx12_Lock_policyE2ELb0ELb0EEptEv
	movss	12(%rax), %xmm6
	movq	704(%rbp), %rax
	movq	%rax, %rcx
	call	_ZNKSt19__shared_ptr_accessI4EdgeLN9__gnu_cxx12_Lock_policyE2ELb0ELb0EEptEv
	movss	8(%rax), %xmm0
	leaq	688(%rbp), %rax
	movaps	%xmm6, %xmm2
	movaps	%xmm0, %xmm1
	movq	%rax, %rcx
	call	_ZN2sf7Vector2IfEC1Eff
	leaq	688(%rbp), %rax
	leaq	272(%rbp), %rdx
	leaq	8(%rdx), %rcx
	movq	%rax, %rdx
	movq	__imp__ZN2sf13Transformable11setPositionERKNS_7Vector2IfEE(%rip), %rax
	call	*%rax
	cvtsi2ss	700(%rbp), %xmm1
	cvtsi2ss	700(%rbp), %xmm0
	leaq	272(%rbp), %rax
	addq	$8, %rax
	movaps	%xmm1, %xmm2
	movaps	%xmm0, %xmm1
	movq	%rax, %rcx
	movq	__imp__ZN2sf13Transformable9setOriginEff(%rip), %rax
	call	*%rax
	movq	776(%rbp), %rax
	leaq	48(%rax), %rcx
	movq	__imp__ZN2sf12RenderStates7DefaultE(%rip), %rdx
	leaq	-80(%rbp), %rax
	movq	%rdx, %r8
	movq	%rax, %rdx
	movq	__imp__ZN2sf12RenderTarget4drawERKNS_8DrawableERKNS_12RenderStatesE(%rip), %rax
	call	*%rax
	movq	776(%rbp), %rax
	leaq	48(%rax), %rcx
	movq	__imp__ZN2sf12RenderStates7DefaultE(%rip), %rdx
	leaq	272(%rbp), %rax
	movq	%rdx, %r8
	movq	%rax, %rdx
	movq	__imp__ZN2sf12RenderTarget4drawERKNS_8DrawableERKNS_12RenderStatesE(%rip), %rax
	call	*%rax
.LEHE7:
	leaq	272(%rbp), %rax
	movq	%rax, %rcx
	call	_ZN2sf11CircleShapeD1Ev
	leaq	-80(%rbp), %rax
	movq	%rax, %rcx
	call	_ZN2sf11CircleShapeD1Ev
	leaq	632(%rbp), %rax
	movq	%rax, %rcx
	call	_ZN9__gnu_cxx17__normal_iteratorIPSt10shared_ptrI4EdgeESt6vectorIS3_SaIS3_EEEppEv
	jmp	.L57
.L56:
	movq	776(%rbp), %rax
	leaq	48(%rax), %rbx
	leaq	640(%rbp), %rax
	movq	%rax, %rcx
	call	_ZNKSt6vectorIN2sf6VertexESaIS1_EE4sizeEv
	movq	%rax, %rsi
	leaq	640(%rbp), %rax
	movl	$0, %edx
	movq	%rax, %rcx
	call	_ZNSt6vectorIN2sf6VertexESaIS1_EEixEy
	movq	%rax, %rdx
	movq	__imp__ZN2sf12RenderStates7DefaultE(%rip), %rax
	movq	%rax, 32(%rsp)
	movl	$1, %r9d
	movq	%rsi, %r8
	movq	%rbx, %rcx
	movq	__imp__ZN2sf12RenderTarget4drawEPKNS_6VertexEyNS_13PrimitiveTypeERKNS_12RenderStatesE(%rip), %rax
.LEHB8:
	call	*%rax
.LEHE8:
	leaq	640(%rbp), %rax
	movq	%rax, %rcx
	call	_ZNSt6vectorIN2sf6VertexESaIS1_EED1Ev
	jmp	.L66
.L65:
	movq	%rax, %rbx
	leaq	272(%rbp), %rax
	movq	%rax, %rcx
	call	_ZN2sf11CircleShapeD1Ev
	jmp	.L59
.L64:
	movq	%rax, %rbx
.L59:
	leaq	-80(%rbp), %rax
	movq	%rax, %rcx
	call	_ZN2sf11CircleShapeD1Ev
	movq	%rbx, %rax
	jmp	.L60
.L63:
.L60:
	movq	%rax, %rbx
	jmp	.L61
.L62:
	movq	%rax, %rbx
.L61:
	leaq	640(%rbp), %rax
	movq	%rax, %rcx
	call	_ZNSt6vectorIN2sf6VertexESaIS1_EED1Ev
	movq	%rbx, %rax
	movq	%rax, %rcx
.LEHB9:
	call	_Unwind_Resume
	nop
.LEHE9:
.L66:
	movaps	720(%rbp), %xmm6
	addq	$864, %rsp
	popq	%rbx
	popq	%rsi
	popq	%rbp
	ret
	.seh_handler	__gxx_personality_seh0, @unwind, @except
	.seh_handlerdata
.LLSDA4085:
	.byte	0xff
	.byte	0xff
	.byte	0x1
	.uleb128 .LLSDACSE4085-.LLSDACSB4085
.LLSDACSB4085:
	.uleb128 .LEHB4-.LFB4085
	.uleb128 .LEHE4-.LEHB4
	.uleb128 .L62-.LFB4085
	.uleb128 0
	.uleb128 .LEHB5-.LFB4085
	.uleb128 .LEHE5-.LEHB5
	.uleb128 .L63-.LFB4085
	.uleb128 0
	.uleb128 .LEHB6-.LFB4085
	.uleb128 .LEHE6-.LEHB6
	.uleb128 .L64-.LFB4085
	.uleb128 0
	.uleb128 .LEHB7-.LFB4085
	.uleb128 .LEHE7-.LEHB7
	.uleb128 .L65-.LFB4085
	.uleb128 0
	.uleb128 .LEHB8-.LFB4085
	.uleb128 .LEHE8-.LEHB8
	.uleb128 .L62-.LFB4085
	.uleb128 0
	.uleb128 .LEHB9-.LFB4085
	.uleb128 .LEHE9-.LEHB9
	.uleb128 0
	.uleb128 0
.LLSDACSE4085:
	.section	.text$_ZN4Draw10draw_edgesERN2sf12RenderWindowERSt6vectorISt10shared_ptrI4EdgeESaIS6_EE,"x"
	.linkonce discard
	.seh_endproc
	.section	.text$_ZN4Draw10draw_cellsERN2sf12RenderWindowERKSt6vectorIS3_I4CellSaIS4_EESaIS6_EE,"x"
	.linkonce discard
	.align 2
	.globl	_ZN4Draw10draw_cellsERN2sf12RenderWindowERKSt6vectorIS3_I4CellSaIS4_EESaIS6_EE
	.def	_ZN4Draw10draw_cellsERN2sf12RenderWindowERKSt6vectorIS3_I4CellSaIS4_EESaIS6_EE;	.scl	2;	.type	32;	.endef
	.seh_proc	_ZN4Draw10draw_cellsERN2sf12RenderWindowERKSt6vectorIS3_I4CellSaIS4_EESaIS6_EE
_ZN4Draw10draw_cellsERN2sf12RenderWindowERKSt6vectorIS3_I4CellSaIS4_EESaIS6_EE:
.LFB4086:
	pushq	%rbp
	.seh_pushreg	%rbp
	pushq	%rbx
	.seh_pushreg	%rbx
	subq	$408, %rsp
	.seh_stackalloc	408
	leaq	128(%rsp), %rbp
	.seh_setframe	%rbp, 128
	.seh_endprologue
	movq	%rcx, 304(%rbp)
	movq	%rdx, 312(%rbp)
	movq	%r8, 320(%rbp)
	movl	$0, 268(%rbp)
.L72:
	movq	304(%rbp), %rax
	movl	4(%rax), %eax
	movq	304(%rbp), %rdx
	movl	8(%rdx), %ebx
	cltd
	idivl	%ebx
	cmpl	%eax, 268(%rbp)
	jge	.L75
	movl	$0, 264(%rbp)
.L71:
	movq	304(%rbp), %rax
	movl	(%rax), %eax
	movq	304(%rbp), %rdx
	movl	8(%rdx), %ebx
	cltd
	idivl	%ebx
	cmpl	%eax, 264(%rbp)
	jge	.L69
	movl	264(%rbp), %eax
	movslq	%eax, %rbx
	movl	268(%rbp), %eax
	cltq
	movq	320(%rbp), %rcx
	movq	%rax, %rdx
	call	_ZNKSt6vectorIS_I4CellSaIS0_EESaIS2_EEixEy
	movq	%rbx, %rdx
	movq	%rax, %rcx
	call	_ZNKSt6vectorI4CellSaIS0_EEixEy
	movzbl	(%rax), %eax
	testb	%al, %al
	je	.L70
	leaq	248(%rbp), %rax
	pxor	%xmm2, %xmm2
	pxor	%xmm1, %xmm1
	movq	%rax, %rcx
	call	_ZN2sf7Vector2IfEC1Eff
	leaq	248(%rbp), %rdx
	leaq	-96(%rbp), %rax
	movq	%rax, %rcx
	movq	__imp__ZN2sf14RectangleShapeC1ERKNS_7Vector2IfEE(%rip), %rax
.LEHB10:
	call	*%rax
.LEHE10:
	movq	304(%rbp), %rax
	movl	8(%rax), %eax
	cvtsi2ss	%eax, %xmm1
	movq	304(%rbp), %rax
	movl	8(%rax), %eax
	cvtsi2ss	%eax, %xmm0
	leaq	256(%rbp), %rax
	movaps	%xmm1, %xmm2
	movaps	%xmm0, %xmm1
	movq	%rax, %rcx
	call	_ZN2sf7Vector2IfEC1Eff
	leaq	256(%rbp), %rdx
	leaq	-96(%rbp), %rax
	movq	%rax, %rcx
	movq	__imp__ZN2sf14RectangleShape7setSizeERKNS_7Vector2IfEE(%rip), %rax
.LEHB11:
	call	*%rax
	movq	__imp__ZN2sf5Color4BlueE(%rip), %rdx
	leaq	-96(%rbp), %rax
	movq	%rax, %rcx
	movq	__imp__ZN2sf5Shape12setFillColorERKNS_5ColorE(%rip), %rax
	call	*%rax
	movq	304(%rbp), %rax
	movl	8(%rax), %eax
	imull	268(%rbp), %eax
	cvtsi2ss	%eax, %xmm1
	movq	304(%rbp), %rax
	movl	8(%rax), %eax
	imull	264(%rbp), %eax
	cvtsi2ss	%eax, %xmm0
	leaq	-96(%rbp), %rax
	addq	$8, %rax
	movaps	%xmm1, %xmm2
	movaps	%xmm0, %xmm1
	movq	%rax, %rcx
	movq	__imp__ZN2sf13Transformable11setPositionEff(%rip), %rax
	call	*%rax
	movq	312(%rbp), %rax
	leaq	48(%rax), %rcx
	movq	__imp__ZN2sf12RenderStates7DefaultE(%rip), %rdx
	leaq	-96(%rbp), %rax
	movq	%rdx, %r8
	movq	%rax, %rdx
	movq	__imp__ZN2sf12RenderTarget4drawERKNS_8DrawableERKNS_12RenderStatesE(%rip), %rax
	call	*%rax
.LEHE11:
	leaq	-96(%rbp), %rax
	movq	%rax, %rcx
	call	_ZN2sf14RectangleShapeD1Ev
.L70:
	addl	$1, 264(%rbp)
	jmp	.L71
.L69:
	addl	$1, 268(%rbp)
	jmp	.L72
.L74:
	movq	%rax, %rbx
	leaq	-96(%rbp), %rax
	movq	%rax, %rcx
	call	_ZN2sf14RectangleShapeD1Ev
	movq	%rbx, %rax
	movq	%rax, %rcx
.LEHB12:
	call	_Unwind_Resume
.LEHE12:
.L75:
	nop
	addq	$408, %rsp
	popq	%rbx
	popq	%rbp
	ret
	.seh_handler	__gxx_personality_seh0, @unwind, @except
	.seh_handlerdata
.LLSDA4086:
	.byte	0xff
	.byte	0xff
	.byte	0x1
	.uleb128 .LLSDACSE4086-.LLSDACSB4086
.LLSDACSB4086:
	.uleb128 .LEHB10-.LFB4086
	.uleb128 .LEHE10-.LEHB10
	.uleb128 0
	.uleb128 0
	.uleb128 .LEHB11-.LFB4086
	.uleb128 .LEHE11-.LEHB11
	.uleb128 .L74-.LFB4086
	.uleb128 0
	.uleb128 .LEHB12-.LFB4086
	.uleb128 .LEHE12-.LEHB12
	.uleb128 0
	.uleb128 0
.LLSDACSE4086:
	.section	.text$_ZN4Draw10draw_cellsERN2sf12RenderWindowERKSt6vectorIS3_I4CellSaIS4_EESaIS6_EE,"x"
	.linkonce discard
	.seh_endproc
	.section	.text$_ZN14EdgesGenerator14outside_boundsESt5arrayIiLy2EE,"x"
	.linkonce discard
	.align 2
	.globl	_ZN14EdgesGenerator14outside_boundsESt5arrayIiLy2EE
	.def	_ZN14EdgesGenerator14outside_boundsESt5arrayIiLy2EE;	.scl	2;	.type	32;	.endef
	.seh_proc	_ZN14EdgesGenerator14outside_boundsESt5arrayIiLy2EE
_ZN14EdgesGenerator14outside_boundsESt5arrayIiLy2EE:
.LFB4087:
	pushq	%rbp
	.seh_pushreg	%rbp
	pushq	%rbx
	.seh_pushreg	%rbx
	subq	$40, %rsp
	.seh_stackalloc	40
	leaq	128(%rsp), %rbp
	.seh_setframe	%rbp, 128
	.seh_endprologue
	movq	%rcx, -64(%rbp)
	movq	%rdx, -56(%rbp)
	leaq	-56(%rbp), %rax
	movl	$0, %edx
	movq	%rax, %rcx
	call	_ZNSt5arrayIiLy2EEixEy
	movl	(%rax), %eax
	testl	%eax, %eax
	js	.L77
	leaq	-56(%rbp), %rax
	movl	$0, %edx
	movq	%rax, %rcx
	call	_ZNSt5arrayIiLy2EEixEy
	movl	(%rax), %eax
	movslq	%eax, %rbx
	movq	-64(%rbp), %rax
	addq	$16, %rax
	movl	$0, %edx
	movq	%rax, %rcx
	call	_ZNSt6vectorIS_I4CellSaIS0_EESaIS2_EEixEy
	movq	%rax, %rcx
	call	_ZNKSt6vectorI4CellSaIS0_EE4sizeEv
	cmpq	%rax, %rbx
	jnb	.L77
	leaq	-56(%rbp), %rax
	movl	$1, %edx
	movq	%rax, %rcx
	call	_ZNSt5arrayIiLy2EEixEy
	movl	(%rax), %eax
	testl	%eax, %eax
	js	.L77
	leaq	-56(%rbp), %rax
	movl	$1, %edx
	movq	%rax, %rcx
	call	_ZNSt5arrayIiLy2EEixEy
	movl	(%rax), %eax
	movslq	%eax, %rbx
	movq	-64(%rbp), %rax
	addq	$16, %rax
	movq	%rax, %rcx
	call	_ZNKSt6vectorIS_I4CellSaIS0_EESaIS2_EE4sizeEv
	cmpq	%rax, %rbx
	jb	.L78
.L77:
	movl	$1, %eax
	jmp	.L79
.L78:
	movl	$0, %eax
.L79:
	addq	$40, %rsp
	popq	%rbx
	popq	%rbp
	ret
	.seh_endproc
	.section	.text$_ZN14EdgesGenerator15find_neighboursESt5arrayIiLy2EE,"x"
	.linkonce discard
	.align 2
	.globl	_ZN14EdgesGenerator15find_neighboursESt5arrayIiLy2EE
	.def	_ZN14EdgesGenerator15find_neighboursESt5arrayIiLy2EE;	.scl	2;	.type	32;	.endef
	.seh_proc	_ZN14EdgesGenerator15find_neighboursESt5arrayIiLy2EE
_ZN14EdgesGenerator15find_neighboursESt5arrayIiLy2EE:
.LFB4088:
	pushq	%rbp
	.seh_pushreg	%rbp
	pushq	%rbx
	.seh_pushreg	%rbx
	subq	$120, %rsp
	.seh_stackalloc	120
	leaq	128(%rsp), %rbp
	.seh_setframe	%rbp, 128
	.seh_endprologue
	movq	%rcx, 16(%rbp)
	movq	%rdx, 24(%rbp)
	movq	%r8, 32(%rbp)
	movq	16(%rbp), %rcx
	call	_ZNSt6vectorIP4CellSaIS1_EEC1Ev
	movl	$4, %edx
	movq	16(%rbp), %rcx
.LEHB13:
	call	_ZNSt6vectorIP4CellSaIS1_EE7reserveEy
	movl	$0, -80(%rbp)
	movl	$-1, -76(%rbp)
	movl	$-1, -72(%rbp)
	movl	$0, -68(%rbp)
	movl	$1, -64(%rbp)
	movl	$0, -60(%rbp)
	movl	$0, -56(%rbp)
	movl	$1, -52(%rbp)
	leaq	-80(%rbp), %rax
	movq	%rax, -32(%rbp)
	movq	-32(%rbp), %rax
	movq	%rax, %rcx
	call	_ZNSt5arrayIS_IiLy2EELy4EE5beginEv
	movq	%rax, -24(%rbp)
	movq	-32(%rbp), %rax
	movq	%rax, %rcx
	call	_ZNSt5arrayIS_IiLy2EELy4EE3endEv
	movq	%rax, -40(%rbp)
.L84:
	movq	-24(%rbp), %rax
	cmpq	-40(%rbp), %rax
	je	.L88
	movq	-24(%rbp), %rax
	movq	(%rax), %rax
	movq	%rax, -88(%rbp)
	leaq	32(%rbp), %rax
	movl	$0, %edx
	movq	%rax, %rcx
	call	_ZNSt5arrayIiLy2EEixEy
	movl	(%rax), %ebx
	leaq	-88(%rbp), %rax
	movl	$0, %edx
	movq	%rax, %rcx
	call	_ZNSt5arrayIiLy2EEixEy
	movl	(%rax), %eax
	addl	%ebx, %eax
	movl	%eax, -96(%rbp)
	leaq	32(%rbp), %rax
	movl	$1, %edx
	movq	%rax, %rcx
	call	_ZNSt5arrayIiLy2EEixEy
	movl	(%rax), %ebx
	leaq	-88(%rbp), %rax
	movl	$1, %edx
	movq	%rax, %rcx
	call	_ZNSt5arrayIiLy2EEixEy
	movl	(%rax), %eax
	addl	%ebx, %eax
	movl	%eax, -92(%rbp)
	movq	-96(%rbp), %rdx
	movq	24(%rbp), %rax
	movq	%rax, %rcx
	call	_ZN14EdgesGenerator14outside_boundsESt5arrayIiLy2EE
	xorl	$1, %eax
	testb	%al, %al
	je	.L83
	leaq	-96(%rbp), %rax
	movl	$0, %edx
	movq	%rax, %rcx
	call	_ZNSt5arrayIiLy2EEixEy
	movl	(%rax), %eax
	movslq	%eax, %rbx
	leaq	-96(%rbp), %rax
	movl	$1, %edx
	movq	%rax, %rcx
	call	_ZNSt5arrayIiLy2EEixEy
	movl	(%rax), %eax
	cltq
	movq	24(%rbp), %rdx
	leaq	16(%rdx), %rcx
	movq	%rax, %rdx
	call	_ZNSt6vectorIS_I4CellSaIS0_EESaIS2_EEixEy
	movq	%rbx, %rdx
	movq	%rax, %rcx
	call	_ZNSt6vectorI4CellSaIS0_EEixEy
	movq	%rax, -48(%rbp)
	leaq	-48(%rbp), %rax
	movq	%rax, %rdx
	movq	16(%rbp), %rcx
	call	_ZNSt6vectorIP4CellSaIS1_EE9push_backEOS1_
.LEHE13:
.L83:
	addq	$8, -24(%rbp)
	jmp	.L84
.L87:
	movq	%rax, %rbx
	movq	16(%rbp), %rcx
	call	_ZNSt6vectorIP4CellSaIS1_EED1Ev
	movq	%rbx, %rax
	movq	%rax, %rcx
.LEHB14:
	call	_Unwind_Resume
.LEHE14:
.L88:
	nop
	movq	16(%rbp), %rax
	addq	$120, %rsp
	popq	%rbx
	popq	%rbp
	ret
	.seh_handler	__gxx_personality_seh0, @unwind, @except
	.seh_handlerdata
.LLSDA4088:
	.byte	0xff
	.byte	0xff
	.byte	0x1
	.uleb128 .LLSDACSE4088-.LLSDACSB4088
.LLSDACSB4088:
	.uleb128 .LEHB13-.LFB4088
	.uleb128 .LEHE13-.LEHB13
	.uleb128 .L87-.LFB4088
	.uleb128 0
	.uleb128 .LEHB14-.LFB4088
	.uleb128 .LEHE14-.LEHB14
	.uleb128 0
	.uleb128 0
.LLSDACSE4088:
	.section	.text$_ZN14EdgesGenerator15find_neighboursESt5arrayIiLy2EE,"x"
	.linkonce discard
	.seh_endproc
	.section	.text$_ZN14EdgesGeneratorC1ERKSt6vectorIS0_I4CellSaIS1_EESaIS3_EEiii,"x"
	.linkonce discard
	.align 2
	.globl	_ZN14EdgesGeneratorC1ERKSt6vectorIS0_I4CellSaIS1_EESaIS3_EEiii
	.def	_ZN14EdgesGeneratorC1ERKSt6vectorIS0_I4CellSaIS1_EESaIS3_EEiii;	.scl	2;	.type	32;	.endef
	.seh_proc	_ZN14EdgesGeneratorC1ERKSt6vectorIS0_I4CellSaIS1_EESaIS3_EEiii
_ZN14EdgesGeneratorC1ERKSt6vectorIS0_I4CellSaIS1_EESaIS3_EEiii:
.LFB4091:
	pushq	%rbp
	.seh_pushreg	%rbp
	movq	%rsp, %rbp
	.seh_setframe	%rbp, 0
	subq	$32, %rsp
	.seh_stackalloc	32
	.seh_endprologue
	movq	%rcx, 16(%rbp)
	movq	%rdx, 24(%rbp)
	movl	%r8d, 32(%rbp)
	movl	%r9d, 40(%rbp)
	movq	16(%rbp), %rax
	movl	32(%rbp), %edx
	movl	%edx, (%rax)
	movq	16(%rbp), %rax
	movl	40(%rbp), %edx
	movl	%edx, 4(%rax)
	movq	16(%rbp), %rax
	movl	48(%rbp), %edx
	movl	%edx, 8(%rax)
	movq	16(%rbp), %rax
	addq	$16, %rax
	movq	24(%rbp), %rdx
	movq	%rax, %rcx
	call	_ZNSt6vectorIS_I4CellSaIS0_EESaIS2_EEC1ERKS4_
	movq	16(%rbp), %rax
	addq	$40, %rax
	movq	%rax, %rcx
	call	_ZNSt6vectorISt10shared_ptrI4EdgeESaIS2_EEC1Ev
	nop
	addq	$32, %rsp
	popq	%rbp
	ret
	.seh_endproc
	.section	.text$_ZNSt12__shared_ptrI4EdgeLN9__gnu_cxx12_Lock_policyE2EEC2ERKS3_,"x"
	.linkonce discard
	.align 2
	.globl	_ZNSt12__shared_ptrI4EdgeLN9__gnu_cxx12_Lock_policyE2EEC2ERKS3_
	.def	_ZNSt12__shared_ptrI4EdgeLN9__gnu_cxx12_Lock_policyE2EEC2ERKS3_;	.scl	2;	.type	32;	.endef
	.seh_proc	_ZNSt12__shared_ptrI4EdgeLN9__gnu_cxx12_Lock_policyE2EEC2ERKS3_
_ZNSt12__shared_ptrI4EdgeLN9__gnu_cxx12_Lock_policyE2EEC2ERKS3_:
.LFB4095:
	pushq	%rbp
	.seh_pushreg	%rbp
	movq	%rsp, %rbp
	.seh_setframe	%rbp, 0
	subq	$32, %rsp
	.seh_stackalloc	32
	.seh_endprologue
	movq	%rcx, 16(%rbp)
	movq	%rdx, 24(%rbp)
	movq	24(%rbp), %rax
	movq	(%rax), %rdx
	movq	16(%rbp), %rax
	movq	%rdx, (%rax)
	movq	16(%rbp), %rax
	addq	$8, %rax
	movq	24(%rbp), %rdx
	addq	$8, %rdx
	movq	%rax, %rcx
	call	_ZNSt14__shared_countILN9__gnu_cxx12_Lock_policyE2EEC1ERKS2_
	nop
	addq	$32, %rsp
	popq	%rbp
	ret
	.seh_endproc
	.section	.text$_ZNSt10shared_ptrI4EdgeEC1ERKS1_,"x"
	.linkonce discard
	.align 2
	.globl	_ZNSt10shared_ptrI4EdgeEC1ERKS1_
	.def	_ZNSt10shared_ptrI4EdgeEC1ERKS1_;	.scl	2;	.type	32;	.endef
	.seh_proc	_ZNSt10shared_ptrI4EdgeEC1ERKS1_
_ZNSt10shared_ptrI4EdgeEC1ERKS1_:
.LFB4098:
	pushq	%rbp
	.seh_pushreg	%rbp
	movq	%rsp, %rbp
	.seh_setframe	%rbp, 0
	subq	$32, %rsp
	.seh_stackalloc	32
	.seh_endprologue
	movq	%rcx, 16(%rbp)
	movq	%rdx, 24(%rbp)
	movq	16(%rbp), %rax
	movq	24(%rbp), %rdx
	movq	%rax, %rcx
	call	_ZNSt12__shared_ptrI4EdgeLN9__gnu_cxx12_Lock_policyE2EEC2ERKS3_
	nop
	addq	$32, %rsp
	popq	%rbp
	ret
	.seh_endproc
	.section	.text$_ZNSt12__shared_ptrI4EdgeLN9__gnu_cxx12_Lock_policyE2EEaSERKS3_,"x"
	.linkonce discard
	.align 2
	.globl	_ZNSt12__shared_ptrI4EdgeLN9__gnu_cxx12_Lock_policyE2EEaSERKS3_
	.def	_ZNSt12__shared_ptrI4EdgeLN9__gnu_cxx12_Lock_policyE2EEaSERKS3_;	.scl	2;	.type	32;	.endef
	.seh_proc	_ZNSt12__shared_ptrI4EdgeLN9__gnu_cxx12_Lock_policyE2EEaSERKS3_
_ZNSt12__shared_ptrI4EdgeLN9__gnu_cxx12_Lock_policyE2EEaSERKS3_:
.LFB4100:
	pushq	%rbp
	.seh_pushreg	%rbp
	movq	%rsp, %rbp
	.seh_setframe	%rbp, 0
	subq	$32, %rsp
	.seh_stackalloc	32
	.seh_endprologue
	movq	%rcx, 16(%rbp)
	movq	%rdx, 24(%rbp)
	movq	24(%rbp), %rax
	movq	(%rax), %rdx
	movq	16(%rbp), %rax
	movq	%rdx, (%rax)
	movq	24(%rbp), %rax
	leaq	8(%rax), %rdx
	movq	16(%rbp), %rax
	addq	$8, %rax
	movq	%rax, %rcx
	call	_ZNSt14__shared_countILN9__gnu_cxx12_Lock_policyE2EEaSERKS2_
	movq	16(%rbp), %rax
	addq	$32, %rsp
	popq	%rbp
	ret
	.seh_endproc
	.section	.text$_ZNSt10shared_ptrI4EdgeEaSERKS1_,"x"
	.linkonce discard
	.align 2
	.globl	_ZNSt10shared_ptrI4EdgeEaSERKS1_
	.def	_ZNSt10shared_ptrI4EdgeEaSERKS1_;	.scl	2;	.type	32;	.endef
	.seh_proc	_ZNSt10shared_ptrI4EdgeEaSERKS1_
_ZNSt10shared_ptrI4EdgeEaSERKS1_:
.LFB4099:
	pushq	%rbp
	.seh_pushreg	%rbp
	movq	%rsp, %rbp
	.seh_setframe	%rbp, 0
	subq	$32, %rsp
	.seh_stackalloc	32
	.seh_endprologue
	movq	%rcx, 16(%rbp)
	movq	%rdx, 24(%rbp)
	movq	16(%rbp), %rax
	movq	24(%rbp), %rdx
	movq	%rax, %rcx
	call	_ZNSt12__shared_ptrI4EdgeLN9__gnu_cxx12_Lock_policyE2EEaSERKS3_
	movq	16(%rbp), %rax
	addq	$32, %rsp
	popq	%rbp
	ret
	.seh_endproc
	.section	.text$_ZN14EdgesGenerator10make_edgesEv,"x"
	.linkonce discard
	.align 2
	.globl	_ZN14EdgesGenerator10make_edgesEv
	.def	_ZN14EdgesGenerator10make_edgesEv;	.scl	2;	.type	32;	.endef
	.seh_proc	_ZN14EdgesGenerator10make_edgesEv
_ZN14EdgesGenerator10make_edgesEv:
.LFB4092:
	pushq	%rbp
	.seh_pushreg	%rbp
	pushq	%rsi
	.seh_pushreg	%rsi
	pushq	%rbx
	.seh_pushreg	%rbx
	subq	$288, %rsp
	.seh_stackalloc	288
	leaq	128(%rsp), %rbp
	.seh_setframe	%rbp, 128
	.seh_endprologue
	movq	%rcx, 192(%rbp)
	movq	%rdx, 200(%rbp)
	movq	200(%rbp), %rax
	addq	$40, %rax
	movq	%rax, %rcx
	call	_ZNSt6vectorISt10shared_ptrI4EdgeESaIS2_EE5clearEv
	movl	$0, 156(%rbp)
.L121:
	movq	200(%rbp), %rax
	movl	4(%rax), %eax
	movq	200(%rbp), %rdx
	movl	8(%rdx), %esi
	cltd
	idivl	%esi
	cmpl	%eax, 156(%rbp)
	jge	.L97
	movl	$0, 152(%rbp)
.L120:
	movq	200(%rbp), %rax
	movl	(%rax), %eax
	movq	200(%rbp), %rdx
	movl	8(%rdx), %esi
	cltd
	idivl	%esi
	cmpl	%eax, 152(%rbp)
	jge	.L98
	movl	152(%rbp), %eax
	movslq	%eax, %rsi
	movl	156(%rbp), %eax
	cltq
	movq	200(%rbp), %rdx
	leaq	16(%rdx), %rcx
	movq	%rax, %rdx
	call	_ZNSt6vectorIS_I4CellSaIS0_EESaIS2_EEixEy
	movq	%rsi, %rdx
	movq	%rax, %rcx
	call	_ZNSt6vectorI4CellSaIS0_EEixEy
	movq	%rax, 144(%rbp)
	movq	144(%rbp), %rax
	movzbl	(%rax), %eax
	testb	%al, %al
	je	.L99
	movl	152(%rbp), %eax
	movabsq	$-4294967296, %rdx
	andq	%rbx, %rdx
	orq	%rdx, %rax
	movq	%rax, %rbx
	movl	156(%rbp), %eax
	salq	$32, %rax
	movl	%ebx, %edx
	orq	%rdx, %rax
	movq	%rax, %rbx
	leaq	48(%rbp), %rax
	movq	200(%rbp), %rdx
	movq	%rbx, %r8
	movq	%rax, %rcx
.LEHB15:
	call	_ZN14EdgesGenerator15find_neighboursESt5arrayIiLy2EE
.LEHE15:
	leaq	48(%rbp), %rax
	movq	%rax, %rcx
	call	_ZNKSt6vectorIP4CellSaIS1_EE4sizeEv
	cmpq	$3, %rax
	jbe	.L100
	leaq	48(%rbp), %rax
	movl	$3, %edx
	movq	%rax, %rcx
	call	_ZNSt6vectorIP4CellSaIS1_EEixEy
	movq	(%rax), %rax
	movzbl	(%rax), %eax
	xorl	$1, %eax
	testb	%al, %al
	je	.L100
	movl	$1, %eax
	jmp	.L101
.L100:
	movl	$0, %eax
.L101:
	testb	%al, %al
	je	.L102
	leaq	48(%rbp), %rax
	movl	$1, %edx
	movq	%rax, %rcx
	call	_ZNSt6vectorIP4CellSaIS1_EEixEy
	movq	(%rax), %rax
	addq	$1, %rax
	movl	$3, %edx
	movq	%rax, %rcx
	call	_ZNSt5arrayIbLy4EEixEy
	movzbl	(%rax), %eax
	testb	%al, %al
	je	.L103
	leaq	48(%rbp), %rax
	movl	$1, %edx
	movq	%rax, %rcx
	call	_ZNSt6vectorIP4CellSaIS1_EEixEy
	movq	(%rax), %rax
	addq	$8, %rax
	movl	$3, %edx
	movq	%rax, %rcx
	call	_ZNSt5arrayISt10shared_ptrI4EdgeELy4EEixEy
	movq	%rax, %rdx
	leaq	32(%rbp), %rax
	movq	%rax, %rcx
	call	_ZNSt10shared_ptrI4EdgeEC1ERKS1_
	leaq	32(%rbp), %rax
	movq	%rax, %rcx
	call	_ZNKSt19__shared_ptr_accessI4EdgeLN9__gnu_cxx12_Lock_policyE2ELb0ELb0EEptEv
	movss	8(%rax), %xmm1
	movq	200(%rbp), %rdx
	movl	8(%rdx), %edx
	cvtsi2ss	%edx, %xmm0
	addss	%xmm1, %xmm0
	movss	%xmm0, 8(%rax)
	movq	144(%rbp), %rax
	addq	$8, %rax
	movl	$3, %edx
	movq	%rax, %rcx
	call	_ZNSt5arrayISt10shared_ptrI4EdgeELy4EEixEy
	movq	%rax, %rcx
	leaq	32(%rbp), %rax
	movq	%rax, %rdx
	call	_ZNSt10shared_ptrI4EdgeEaSERKS1_
	movq	144(%rbp), %rax
	addq	$1, %rax
	movl	$3, %edx
	movq	%rax, %rcx
	call	_ZNSt5arrayIbLy4EEixEy
	movb	$1, (%rax)
	leaq	32(%rbp), %rax
	movq	%rax, %rcx
	call	_ZNSt10shared_ptrI4EdgeED1Ev
	jmp	.L102
.L103:
	movq	200(%rbp), %rax
	movl	8(%rax), %eax
	imull	156(%rbp), %eax
	movq	200(%rbp), %rdx
	movl	8(%rdx), %edx
	addl	%edx, %eax
	movl	%eax, 80(%rbp)
	movq	200(%rbp), %rax
	movl	8(%rax), %eax
	imull	152(%rbp), %eax
	movq	200(%rbp), %rdx
	movl	8(%rdx), %edx
	addl	%edx, %eax
	movl	%eax, 84(%rbp)
	movq	200(%rbp), %rax
	movl	8(%rax), %eax
	imull	156(%rbp), %eax
	movq	200(%rbp), %rdx
	movl	8(%rdx), %edx
	addl	%edx, %eax
	movl	%eax, 88(%rbp)
	movq	200(%rbp), %rax
	movl	8(%rax), %eax
	imull	152(%rbp), %eax
	movl	%eax, 92(%rbp)
	leaq	16(%rbp), %rax
	leaq	84(%rbp), %r9
	leaq	88(%rbp), %r8
	leaq	92(%rbp), %rdx
	leaq	80(%rbp), %rcx
	movq	%rcx, 32(%rsp)
	movq	%rax, %rcx
.LEHB16:
	call	_ZSt11make_sharedI4EdgeJiiiiEESt10shared_ptrIT_EDpOT0_
.LEHE16:
	movq	144(%rbp), %rax
	addq	$8, %rax
	movl	$3, %edx
	movq	%rax, %rcx
	call	_ZNSt5arrayISt10shared_ptrI4EdgeELy4EEixEy
	movq	%rax, %rcx
	leaq	16(%rbp), %rax
	movq	%rax, %rdx
	call	_ZNSt10shared_ptrI4EdgeEaSERKS1_
	movq	144(%rbp), %rax
	addq	$1, %rax
	movl	$3, %edx
	movq	%rax, %rcx
	call	_ZNSt5arrayIbLy4EEixEy
	movb	$1, (%rax)
	movq	200(%rbp), %rax
	leaq	40(%rax), %rsi
	leaq	16(%rbp), %rax
	movq	%rax, %rcx
	call	_ZSt4moveIRSt10shared_ptrI4EdgeEEONSt16remove_referenceIT_E4typeEOS5_
	movq	%rax, %rdx
	movq	%rsi, %rcx
.LEHB17:
	call	_ZNSt6vectorISt10shared_ptrI4EdgeESaIS2_EE12emplace_backIJS2_EEEvDpOT_
.LEHE17:
	leaq	16(%rbp), %rax
	movq	%rax, %rcx
	call	_ZNSt10shared_ptrI4EdgeED1Ev
.L102:
	leaq	48(%rbp), %rax
	movq	%rax, %rcx
	call	_ZNKSt6vectorIP4CellSaIS1_EE4sizeEv
	cmpq	$2, %rax
	jbe	.L105
	leaq	48(%rbp), %rax
	movl	$2, %edx
	movq	%rax, %rcx
	call	_ZNSt6vectorIP4CellSaIS1_EEixEy
	movq	(%rax), %rax
	movzbl	(%rax), %eax
	xorl	$1, %eax
	testb	%al, %al
	je	.L105
	movl	$1, %eax
	jmp	.L106
.L105:
	movl	$0, %eax
.L106:
	testb	%al, %al
	je	.L107
	leaq	48(%rbp), %rax
	movl	$0, %edx
	movq	%rax, %rcx
	call	_ZNSt6vectorIP4CellSaIS1_EEixEy
	movq	(%rax), %rax
	addq	$1, %rax
	movl	$2, %edx
	movq	%rax, %rcx
	call	_ZNSt5arrayIbLy4EEixEy
	movzbl	(%rax), %eax
	testb	%al, %al
	je	.L108
	leaq	48(%rbp), %rax
	movl	$0, %edx
	movq	%rax, %rcx
	call	_ZNSt6vectorIP4CellSaIS1_EEixEy
	movq	(%rax), %rax
	addq	$8, %rax
	movl	$2, %edx
	movq	%rax, %rcx
	call	_ZNSt5arrayISt10shared_ptrI4EdgeELy4EEixEy
	movq	%rax, %rdx
	movq	%rbp, %rax
	movq	%rax, %rcx
	call	_ZNSt10shared_ptrI4EdgeEC1ERKS1_
	movq	%rbp, %rax
	movq	%rax, %rcx
	call	_ZNKSt19__shared_ptr_accessI4EdgeLN9__gnu_cxx12_Lock_policyE2ELb0ELb0EEptEv
	movss	12(%rax), %xmm1
	movq	200(%rbp), %rdx
	movl	8(%rdx), %edx
	cvtsi2ss	%edx, %xmm0
	addss	%xmm1, %xmm0
	movss	%xmm0, 12(%rax)
	movq	144(%rbp), %rax
	addq	$8, %rax
	movl	$2, %edx
	movq	%rax, %rcx
	call	_ZNSt5arrayISt10shared_ptrI4EdgeELy4EEixEy
	movq	%rax, %rcx
	movq	%rbp, %rax
	movq	%rax, %rdx
	call	_ZNSt10shared_ptrI4EdgeEaSERKS1_
	movq	144(%rbp), %rax
	addq	$1, %rax
	movl	$2, %edx
	movq	%rax, %rcx
	call	_ZNSt5arrayIbLy4EEixEy
	movb	$1, (%rax)
	movq	%rbp, %rax
	movq	%rax, %rcx
	call	_ZNSt10shared_ptrI4EdgeED1Ev
	jmp	.L107
.L108:
	movq	200(%rbp), %rax
	movl	8(%rax), %eax
	imull	156(%rbp), %eax
	movq	200(%rbp), %rdx
	movl	8(%rdx), %edx
	addl	%edx, %eax
	movl	%eax, 96(%rbp)
	movq	200(%rbp), %rax
	movl	8(%rax), %eax
	imull	152(%rbp), %eax
	movq	200(%rbp), %rdx
	movl	8(%rdx), %edx
	addl	%edx, %eax
	movl	%eax, 100(%rbp)
	movq	200(%rbp), %rax
	movl	8(%rax), %eax
	imull	156(%rbp), %eax
	movl	%eax, 104(%rbp)
	movq	200(%rbp), %rax
	movl	8(%rax), %eax
	imull	152(%rbp), %eax
	movq	200(%rbp), %rdx
	movl	8(%rdx), %edx
	addl	%edx, %eax
	movl	%eax, 108(%rbp)
	leaq	-16(%rbp), %rax
	leaq	100(%rbp), %r9
	leaq	104(%rbp), %r8
	leaq	108(%rbp), %rdx
	leaq	96(%rbp), %rcx
	movq	%rcx, 32(%rsp)
	movq	%rax, %rcx
.LEHB18:
	call	_ZSt11make_sharedI4EdgeJiiiiEESt10shared_ptrIT_EDpOT0_
.LEHE18:
	movq	144(%rbp), %rax
	addq	$8, %rax
	movl	$2, %edx
	movq	%rax, %rcx
	call	_ZNSt5arrayISt10shared_ptrI4EdgeELy4EEixEy
	movq	%rax, %rcx
	leaq	-16(%rbp), %rax
	movq	%rax, %rdx
	call	_ZNSt10shared_ptrI4EdgeEaSERKS1_
	movq	144(%rbp), %rax
	addq	$1, %rax
	movl	$2, %edx
	movq	%rax, %rcx
	call	_ZNSt5arrayIbLy4EEixEy
	movb	$1, (%rax)
	movq	200(%rbp), %rax
	leaq	40(%rax), %rsi
	leaq	-16(%rbp), %rax
	movq	%rax, %rcx
	call	_ZSt4moveIRSt10shared_ptrI4EdgeEEONSt16remove_referenceIT_E4typeEOS5_
	movq	%rax, %rdx
	movq	%rsi, %rcx
.LEHB19:
	call	_ZNSt6vectorISt10shared_ptrI4EdgeESaIS2_EE12emplace_backIJS2_EEEvDpOT_
.LEHE19:
	leaq	-16(%rbp), %rax
	movq	%rax, %rcx
	call	_ZNSt10shared_ptrI4EdgeED1Ev
.L107:
	leaq	48(%rbp), %rax
	movq	%rax, %rcx
	call	_ZNKSt6vectorIP4CellSaIS1_EE4sizeEv
	cmpq	$1, %rax
	jbe	.L110
	leaq	48(%rbp), %rax
	movl	$1, %edx
	movq	%rax, %rcx
	call	_ZNSt6vectorIP4CellSaIS1_EEixEy
	movq	(%rax), %rax
	movzbl	(%rax), %eax
	xorl	$1, %eax
	testb	%al, %al
	je	.L110
	movl	$1, %eax
	jmp	.L111
.L110:
	movl	$0, %eax
.L111:
	testb	%al, %al
	je	.L112
	leaq	48(%rbp), %rax
	movl	$0, %edx
	movq	%rax, %rcx
	call	_ZNSt6vectorIP4CellSaIS1_EEixEy
	movq	(%rax), %rax
	addq	$1, %rax
	movl	$1, %edx
	movq	%rax, %rcx
	call	_ZNSt5arrayIbLy4EEixEy
	movzbl	(%rax), %eax
	testb	%al, %al
	je	.L113
	leaq	48(%rbp), %rax
	movl	$0, %edx
	movq	%rax, %rcx
	call	_ZNSt6vectorIP4CellSaIS1_EEixEy
	movq	(%rax), %rax
	addq	$8, %rax
	movl	$1, %edx
	movq	%rax, %rcx
	call	_ZNSt5arrayISt10shared_ptrI4EdgeELy4EEixEy
	movq	%rax, %rdx
	leaq	-32(%rbp), %rax
	movq	%rax, %rcx
	call	_ZNSt10shared_ptrI4EdgeEC1ERKS1_
	leaq	-32(%rbp), %rax
	movq	%rax, %rcx
	call	_ZNKSt19__shared_ptr_accessI4EdgeLN9__gnu_cxx12_Lock_policyE2ELb0ELb0EEptEv
	movss	12(%rax), %xmm1
	movq	200(%rbp), %rdx
	movl	8(%rdx), %edx
	cvtsi2ss	%edx, %xmm0
	addss	%xmm1, %xmm0
	movss	%xmm0, 12(%rax)
	movq	144(%rbp), %rax
	addq	$8, %rax
	movl	$1, %edx
	movq	%rax, %rcx
	call	_ZNSt5arrayISt10shared_ptrI4EdgeELy4EEixEy
	movq	%rax, %rcx
	leaq	-32(%rbp), %rax
	movq	%rax, %rdx
	call	_ZNSt10shared_ptrI4EdgeEaSERKS1_
	movq	144(%rbp), %rax
	addq	$1, %rax
	movl	$1, %edx
	movq	%rax, %rcx
	call	_ZNSt5arrayIbLy4EEixEy
	movb	$1, (%rax)
	leaq	-32(%rbp), %rax
	movq	%rax, %rcx
	call	_ZNSt10shared_ptrI4EdgeED1Ev
	jmp	.L112
.L113:
	movq	200(%rbp), %rax
	movl	8(%rax), %eax
	imull	156(%rbp), %eax
	movq	200(%rbp), %rdx
	movl	8(%rdx), %edx
	addl	%edx, %eax
	movl	%eax, 112(%rbp)
	movq	200(%rbp), %rax
	movl	8(%rax), %eax
	imull	152(%rbp), %eax
	movl	%eax, 116(%rbp)
	movq	200(%rbp), %rax
	movl	8(%rax), %eax
	imull	156(%rbp), %eax
	movl	%eax, 120(%rbp)
	movq	200(%rbp), %rax
	movl	8(%rax), %eax
	imull	152(%rbp), %eax
	movl	%eax, 124(%rbp)
	leaq	-48(%rbp), %rax
	leaq	116(%rbp), %r9
	leaq	120(%rbp), %r8
	leaq	124(%rbp), %rdx
	leaq	112(%rbp), %rcx
	movq	%rcx, 32(%rsp)
	movq	%rax, %rcx
.LEHB20:
	call	_ZSt11make_sharedI4EdgeJiiiiEESt10shared_ptrIT_EDpOT0_
.LEHE20:
	movq	144(%rbp), %rax
	addq	$8, %rax
	movl	$1, %edx
	movq	%rax, %rcx
	call	_ZNSt5arrayISt10shared_ptrI4EdgeELy4EEixEy
	movq	%rax, %rcx
	leaq	-48(%rbp), %rax
	movq	%rax, %rdx
	call	_ZNSt10shared_ptrI4EdgeEaSERKS1_
	movq	144(%rbp), %rax
	addq	$1, %rax
	movl	$1, %edx
	movq	%rax, %rcx
	call	_ZNSt5arrayIbLy4EEixEy
	movb	$1, (%rax)
	movq	200(%rbp), %rax
	leaq	40(%rax), %rsi
	leaq	-48(%rbp), %rax
	movq	%rax, %rcx
	call	_ZSt4moveIRSt10shared_ptrI4EdgeEEONSt16remove_referenceIT_E4typeEOS5_
	movq	%rax, %rdx
	movq	%rsi, %rcx
.LEHB21:
	call	_ZNSt6vectorISt10shared_ptrI4EdgeESaIS2_EE12emplace_backIJS2_EEEvDpOT_
.LEHE21:
	leaq	-48(%rbp), %rax
	movq	%rax, %rcx
	call	_ZNSt10shared_ptrI4EdgeED1Ev
.L112:
	leaq	48(%rbp), %rax
	movq	%rax, %rcx
	call	_ZNKSt6vectorIP4CellSaIS1_EE4sizeEv
	testq	%rax, %rax
	je	.L115
	leaq	48(%rbp), %rax
	movl	$0, %edx
	movq	%rax, %rcx
	call	_ZNSt6vectorIP4CellSaIS1_EEixEy
	movq	(%rax), %rax
	movzbl	(%rax), %eax
	xorl	$1, %eax
	testb	%al, %al
	je	.L115
	movl	$1, %eax
	jmp	.L116
.L115:
	movl	$0, %eax
.L116:
	testb	%al, %al
	je	.L117
	leaq	48(%rbp), %rax
	movl	$1, %edx
	movq	%rax, %rcx
	call	_ZNSt6vectorIP4CellSaIS1_EEixEy
	movq	(%rax), %rax
	addq	$1, %rax
	movl	$0, %edx
	movq	%rax, %rcx
	call	_ZNSt5arrayIbLy4EEixEy
	movzbl	(%rax), %eax
	testb	%al, %al
	je	.L118
	leaq	48(%rbp), %rax
	movl	$1, %edx
	movq	%rax, %rcx
	call	_ZNSt6vectorIP4CellSaIS1_EEixEy
	movq	(%rax), %rax
	addq	$8, %rax
	movl	$0, %edx
	movq	%rax, %rcx
	call	_ZNSt5arrayISt10shared_ptrI4EdgeELy4EEixEy
	movq	%rax, %rdx
	leaq	-64(%rbp), %rax
	movq	%rax, %rcx
	call	_ZNSt10shared_ptrI4EdgeEC1ERKS1_
	leaq	-64(%rbp), %rax
	movq	%rax, %rcx
	call	_ZNKSt19__shared_ptr_accessI4EdgeLN9__gnu_cxx12_Lock_policyE2ELb0ELb0EEptEv
	movss	8(%rax), %xmm1
	movq	200(%rbp), %rdx
	movl	8(%rdx), %edx
	cvtsi2ss	%edx, %xmm0
	addss	%xmm1, %xmm0
	movss	%xmm0, 8(%rax)
	movq	144(%rbp), %rax
	addq	$8, %rax
	movl	$0, %edx
	movq	%rax, %rcx
	call	_ZNSt5arrayISt10shared_ptrI4EdgeELy4EEixEy
	movq	%rax, %rcx
	leaq	-64(%rbp), %rax
	movq	%rax, %rdx
	call	_ZNSt10shared_ptrI4EdgeEaSERKS1_
	movq	144(%rbp), %rax
	addq	$1, %rax
	movl	$0, %edx
	movq	%rax, %rcx
	call	_ZNSt5arrayIbLy4EEixEy
	movb	$1, (%rax)
	leaq	-64(%rbp), %rax
	movq	%rax, %rcx
	call	_ZNSt10shared_ptrI4EdgeED1Ev
	jmp	.L117
.L118:
	movq	200(%rbp), %rax
	movl	8(%rax), %eax
	imull	156(%rbp), %eax
	movl	%eax, 128(%rbp)
	movq	200(%rbp), %rax
	movl	8(%rax), %eax
	imull	152(%rbp), %eax
	movq	200(%rbp), %rdx
	movl	8(%rdx), %edx
	addl	%edx, %eax
	movl	%eax, 132(%rbp)
	movq	200(%rbp), %rax
	movl	8(%rax), %eax
	imull	156(%rbp), %eax
	movl	%eax, 136(%rbp)
	movq	200(%rbp), %rax
	movl	8(%rax), %eax
	imull	152(%rbp), %eax
	movl	%eax, 140(%rbp)
	leaq	-80(%rbp), %rax
	leaq	132(%rbp), %r9
	leaq	136(%rbp), %r8
	leaq	140(%rbp), %rdx
	leaq	128(%rbp), %rcx
	movq	%rcx, 32(%rsp)
	movq	%rax, %rcx
.LEHB22:
	call	_ZSt11make_sharedI4EdgeJiiiiEESt10shared_ptrIT_EDpOT0_
.LEHE22:
	movq	144(%rbp), %rax
	addq	$8, %rax
	movl	$0, %edx
	movq	%rax, %rcx
	call	_ZNSt5arrayISt10shared_ptrI4EdgeELy4EEixEy
	movq	%rax, %rcx
	leaq	-80(%rbp), %rax
	movq	%rax, %rdx
	call	_ZNSt10shared_ptrI4EdgeEaSERKS1_
	movq	144(%rbp), %rax
	addq	$1, %rax
	movl	$0, %edx
	movq	%rax, %rcx
	call	_ZNSt5arrayIbLy4EEixEy
	movb	$1, (%rax)
	movq	200(%rbp), %rax
	leaq	40(%rax), %rsi
	leaq	-80(%rbp), %rax
	movq	%rax, %rcx
	call	_ZSt4moveIRSt10shared_ptrI4EdgeEEONSt16remove_referenceIT_E4typeEOS5_
	movq	%rax, %rdx
	movq	%rsi, %rcx
.LEHB23:
	call	_ZNSt6vectorISt10shared_ptrI4EdgeESaIS2_EE12emplace_backIJS2_EEEvDpOT_
.LEHE23:
	leaq	-80(%rbp), %rax
	movq	%rax, %rcx
	call	_ZNSt10shared_ptrI4EdgeED1Ev
.L117:
	leaq	48(%rbp), %rax
	movq	%rax, %rcx
	call	_ZNSt6vectorIP4CellSaIS1_EED1Ev
.L99:
	addl	$1, 152(%rbp)
	jmp	.L120
.L98:
	addl	$1, 156(%rbp)
	jmp	.L121
.L97:
	movq	200(%rbp), %rax
	addq	$40, %rax
	movq	%rax, %rdx
	movq	192(%rbp), %rcx
.LEHB24:
	call	_ZNSt6vectorISt10shared_ptrI4EdgeESaIS2_EEC1ERKS4_
	jmp	.L133
.L128:
	movq	%rax, %rbx
	leaq	16(%rbp), %rax
	movq	%rax, %rcx
	call	_ZNSt10shared_ptrI4EdgeED1Ev
	jmp	.L124
.L130:
	movq	%rax, %rbx
	leaq	-16(%rbp), %rax
	movq	%rax, %rcx
	call	_ZNSt10shared_ptrI4EdgeED1Ev
	jmp	.L124
.L131:
	movq	%rax, %rbx
	leaq	-48(%rbp), %rax
	movq	%rax, %rcx
	call	_ZNSt10shared_ptrI4EdgeED1Ev
	jmp	.L124
.L132:
	movq	%rax, %rbx
	leaq	-80(%rbp), %rax
	movq	%rax, %rcx
	call	_ZNSt10shared_ptrI4EdgeED1Ev
	jmp	.L124
.L129:
	movq	%rax, %rbx
.L124:
	leaq	48(%rbp), %rax
	movq	%rax, %rcx
	call	_ZNSt6vectorIP4CellSaIS1_EED1Ev
	movq	%rbx, %rax
	movq	%rax, %rcx
	call	_Unwind_Resume
.LEHE24:
.L133:
	movq	192(%rbp), %rax
	addq	$288, %rsp
	popq	%rbx
	popq	%rsi
	popq	%rbp
	ret
	.seh_handler	__gxx_personality_seh0, @unwind, @except
	.seh_handlerdata
.LLSDA4092:
	.byte	0xff
	.byte	0xff
	.byte	0x1
	.uleb128 .LLSDACSE4092-.LLSDACSB4092
.LLSDACSB4092:
	.uleb128 .LEHB15-.LFB4092
	.uleb128 .LEHE15-.LEHB15
	.uleb128 0
	.uleb128 0
	.uleb128 .LEHB16-.LFB4092
	.uleb128 .LEHE16-.LEHB16
	.uleb128 .L129-.LFB4092
	.uleb128 0
	.uleb128 .LEHB17-.LFB4092
	.uleb128 .LEHE17-.LEHB17
	.uleb128 .L128-.LFB4092
	.uleb128 0
	.uleb128 .LEHB18-.LFB4092
	.uleb128 .LEHE18-.LEHB18
	.uleb128 .L129-.LFB4092
	.uleb128 0
	.uleb128 .LEHB19-.LFB4092
	.uleb128 .LEHE19-.LEHB19
	.uleb128 .L130-.LFB4092
	.uleb128 0
	.uleb128 .LEHB20-.LFB4092
	.uleb128 .LEHE20-.LEHB20
	.uleb128 .L129-.LFB4092
	.uleb128 0
	.uleb128 .LEHB21-.LFB4092
	.uleb128 .LEHE21-.LEHB21
	.uleb128 .L131-.LFB4092
	.uleb128 0
	.uleb128 .LEHB22-.LFB4092
	.uleb128 .LEHE22-.LEHB22
	.uleb128 .L129-.LFB4092
	.uleb128 0
	.uleb128 .LEHB23-.LFB4092
	.uleb128 .LEHE23-.LEHB23
	.uleb128 .L132-.LFB4092
	.uleb128 0
	.uleb128 .LEHB24-.LFB4092
	.uleb128 .LEHE24-.LEHB24
	.uleb128 0
	.uleb128 0
.LLSDACSE4092:
	.section	.text$_ZN14EdgesGenerator10make_edgesEv,"x"
	.linkonce discard
	.seh_endproc
	.section	.text$_ZZN19TrianglesGeneration14sort_trianglesEvENKUlRKSt5arrayIfLy3EES3_E_clES3_S3_,"x"
	.linkonce discard
	.align 2
	.globl	_ZZN19TrianglesGeneration14sort_trianglesEvENKUlRKSt5arrayIfLy3EES3_E_clES3_S3_
	.def	_ZZN19TrianglesGeneration14sort_trianglesEvENKUlRKSt5arrayIfLy3EES3_E_clES3_S3_;	.scl	2;	.type	32;	.endef
	.seh_proc	_ZZN19TrianglesGeneration14sort_trianglesEvENKUlRKSt5arrayIfLy3EES3_E_clES3_S3_
_ZZN19TrianglesGeneration14sort_trianglesEvENKUlRKSt5arrayIfLy3EES3_E_clES3_S3_:
.LFB4102:
	pushq	%rbp
	.seh_pushreg	%rbp
	movq	%rsp, %rbp
	.seh_setframe	%rbp, 0
	subq	$48, %rsp
	.seh_stackalloc	48
	movaps	%xmm6, -16(%rbp)
	.seh_savexmm	%xmm6, 32
	.seh_endprologue
	movq	%rcx, 16(%rbp)
	movq	%rdx, 24(%rbp)
	movq	%r8, 32(%rbp)
	movq	24(%rbp), %rax
	movl	$2, %edx
	movq	%rax, %rcx
	call	_ZNKSt5arrayIfLy3EEixEy
	movss	(%rax), %xmm6
	movq	32(%rbp), %rax
	movl	$2, %edx
	movq	%rax, %rcx
	call	_ZNKSt5arrayIfLy3EEixEy
	movss	(%rax), %xmm0
	comiss	%xmm6, %xmm0
	seta	%al
	movaps	-16(%rbp), %xmm6
	addq	$48, %rsp
	popq	%rbp
	ret
	.seh_endproc
	.section	.text$_ZNKSt5arrayIfLy3EEixEy,"x"
	.linkonce discard
	.align 2
	.globl	_ZNKSt5arrayIfLy3EEixEy
	.def	_ZNKSt5arrayIfLy3EEixEy;	.scl	2;	.type	32;	.endef
	.seh_proc	_ZNKSt5arrayIfLy3EEixEy
_ZNKSt5arrayIfLy3EEixEy:
.LFB4103:
	pushq	%rbp
	.seh_pushreg	%rbp
	movq	%rsp, %rbp
	.seh_setframe	%rbp, 0
	subq	$32, %rsp
	.seh_stackalloc	32
	.seh_endprologue
	movq	%rcx, 16(%rbp)
	movq	%rdx, 24(%rbp)
	movq	16(%rbp), %rax
	movq	24(%rbp), %rdx
	movq	%rax, %rcx
	call	_ZNSt14__array_traitsIfLy3EE6_S_refERA3_Kfy
	addq	$32, %rsp
	popq	%rbp
	ret
	.seh_endproc
	.section	.text$_ZNSt14__array_traitsIfLy3EE6_S_refERA3_Kfy,"x"
	.linkonce discard
	.globl	_ZNSt14__array_traitsIfLy3EE6_S_refERA3_Kfy
	.def	_ZNSt14__array_traitsIfLy3EE6_S_refERA3_Kfy;	.scl	2;	.type	32;	.endef
	.seh_proc	_ZNSt14__array_traitsIfLy3EE6_S_refERA3_Kfy
_ZNSt14__array_traitsIfLy3EE6_S_refERA3_Kfy:
.LFB4104:
	pushq	%rbp
	.seh_pushreg	%rbp
	movq	%rsp, %rbp
	.seh_setframe	%rbp, 0
	.seh_endprologue
	movq	%rcx, 16(%rbp)
	movq	%rdx, 24(%rbp)
	movq	24(%rbp), %rax
	leaq	0(,%rax,4), %rdx
	movq	16(%rbp), %rax
	addq	%rdx, %rax
	popq	%rbp
	ret
	.seh_endproc
	.section	.text$_ZN19TrianglesGeneration14sort_trianglesEv,"x"
	.linkonce discard
	.align 2
	.globl	_ZN19TrianglesGeneration14sort_trianglesEv
	.def	_ZN19TrianglesGeneration14sort_trianglesEv;	.scl	2;	.type	32;	.endef
	.seh_proc	_ZN19TrianglesGeneration14sort_trianglesEv
_ZN19TrianglesGeneration14sort_trianglesEv:
.LFB4101:
	pushq	%rbp
	.seh_pushreg	%rbp
	pushq	%rsi
	.seh_pushreg	%rsi
	pushq	%rbx
	.seh_pushreg	%rbx
	movq	%rsp, %rbp
	.seh_setframe	%rbp, 0
	subq	$48, %rsp
	.seh_stackalloc	48
	.seh_endprologue
	movq	%rcx, 32(%rbp)
	movq	32(%rbp), %rax
	addq	$16, %rax
	movq	%rax, %rcx
	call	_ZNSt6vectorISt5arrayIfLy3EESaIS1_EE3endEv
	movq	%rax, %rbx
	movq	32(%rbp), %rax
	addq	$16, %rax
	movq	%rax, %rcx
	call	_ZNSt6vectorISt5arrayIfLy3EESaIS1_EE5beginEv
	movl	%esi, %r8d
	movq	%rbx, %rdx
	movq	%rax, %rcx
	call	_ZSt4sortIN9__gnu_cxx17__normal_iteratorIPSt5arrayIfLy3EESt6vectorIS3_SaIS3_EEEEZN19TrianglesGeneration14sort_trianglesEvEUlRKS3_SB_E_EvT_SD_T0_
	nop
	addq	$48, %rsp
	popq	%rbx
	popq	%rsi
	popq	%rbp
	ret
	.seh_endproc
	.section	.text$_ZZN19TrianglesGeneration16filter_triangelsEvENKUlRKSt5arrayIfLy3EES3_E_clES3_S3_,"x"
	.linkonce discard
	.align 2
	.globl	_ZZN19TrianglesGeneration16filter_triangelsEvENKUlRKSt5arrayIfLy3EES3_E_clES3_S3_
	.def	_ZZN19TrianglesGeneration16filter_triangelsEvENKUlRKSt5arrayIfLy3EES3_E_clES3_S3_;	.scl	2;	.type	32;	.endef
	.seh_proc	_ZZN19TrianglesGeneration16filter_triangelsEvENKUlRKSt5arrayIfLy3EES3_E_clES3_S3_
_ZZN19TrianglesGeneration16filter_triangelsEvENKUlRKSt5arrayIfLy3EES3_E_clES3_S3_:
.LFB4106:
	pushq	%rbp
	.seh_pushreg	%rbp
	movq	%rsp, %rbp
	.seh_setframe	%rbp, 0
	subq	$48, %rsp
	.seh_stackalloc	48
	movaps	%xmm6, -16(%rbp)
	.seh_savexmm	%xmm6, 32
	.seh_endprologue
	movq	%rcx, 16(%rbp)
	movq	%rdx, 24(%rbp)
	movq	%r8, 32(%rbp)
	movq	24(%rbp), %rax
	movl	$0, %edx
	movq	%rax, %rcx
	call	_ZNKSt5arrayIfLy3EEixEy
	movss	(%rax), %xmm6
	movq	32(%rbp), %rax
	movl	$0, %edx
	movq	%rax, %rcx
	call	_ZNKSt5arrayIfLy3EEixEy
	movss	(%rax), %xmm0
	subss	%xmm0, %xmm6
	movaps	%xmm6, %xmm0
	movss	.LC5(%rip), %xmm1
	andps	%xmm0, %xmm1
	movss	.LC6(%rip), %xmm0
	comiss	%xmm1, %xmm0
	jbe	.L142
	movq	24(%rbp), %rax
	movl	$1, %edx
	movq	%rax, %rcx
	call	_ZNKSt5arrayIfLy3EEixEy
	movss	(%rax), %xmm6
	movq	32(%rbp), %rax
	movl	$1, %edx
	movq	%rax, %rcx
	call	_ZNKSt5arrayIfLy3EEixEy
	movss	(%rax), %xmm0
	subss	%xmm0, %xmm6
	movaps	%xmm6, %xmm0
	movss	.LC5(%rip), %xmm1
	andps	%xmm0, %xmm1
	movss	.LC6(%rip), %xmm0
	comiss	%xmm1, %xmm0
	jbe	.L142
	movl	$1, %eax
	jmp	.L145
.L142:
	movl	$0, %eax
.L145:
	movaps	-16(%rbp), %xmm6
	addq	$48, %rsp
	popq	%rbp
	ret
	.seh_endproc
	.section	.text$_ZN19TrianglesGeneration16filter_triangelsEv,"x"
	.linkonce discard
	.align 2
	.globl	_ZN19TrianglesGeneration16filter_triangelsEv
	.def	_ZN19TrianglesGeneration16filter_triangelsEv;	.scl	2;	.type	32;	.endef
	.seh_proc	_ZN19TrianglesGeneration16filter_triangelsEv
_ZN19TrianglesGeneration16filter_triangelsEv:
.LFB4105:
	pushq	%rbp
	.seh_pushreg	%rbp
	pushq	%rsi
	.seh_pushreg	%rsi
	pushq	%rbx
	.seh_pushreg	%rbx
	movq	%rsp, %rbp
	.seh_setframe	%rbp, 0
	subq	$48, %rsp
	.seh_stackalloc	48
	.seh_endprologue
	movq	%rcx, 32(%rbp)
	movq	32(%rbp), %rax
	addq	$16, %rax
	movq	%rax, %rcx
	call	_ZNSt6vectorISt5arrayIfLy3EESaIS1_EE3endEv
	movq	%rax, %rbx
	movq	32(%rbp), %rax
	addq	$16, %rax
	movq	%rax, %rcx
	call	_ZNSt6vectorISt5arrayIfLy3EESaIS1_EE5beginEv
	movl	%esi, %r8d
	movq	%rbx, %rdx
	movq	%rax, %rcx
	call	_ZSt6uniqueIN9__gnu_cxx17__normal_iteratorIPSt5arrayIfLy3EESt6vectorIS3_SaIS3_EEEEZN19TrianglesGeneration16filter_triangelsEvEUlRKS3_SB_E_ET_SD_SD_T0_
	movq	%rax, -16(%rbp)
	movq	32(%rbp), %rax
	leaq	16(%rax), %rbx
	movq	32(%rbp), %rax
	addq	$16, %rax
	movq	%rax, %rcx
	call	_ZNSt6vectorISt5arrayIfLy3EESaIS1_EE5beginEv
	movq	%rax, %rcx
	movq	-16(%rbp), %rax
	movq	%rax, %rdx
	call	_ZSt8distanceIN9__gnu_cxx17__normal_iteratorIPSt5arrayIfLy3EESt6vectorIS3_SaIS3_EEEEENSt15iterator_traitsIT_E15difference_typeESA_SA_
	movq	%rax, %rdx
	movq	%rbx, %rcx
	call	_ZNSt6vectorISt5arrayIfLy3EESaIS1_EE6resizeEy
	nop
	addq	$48, %rsp
	popq	%rbx
	popq	%rsi
	popq	%rbp
	ret
	.seh_endproc
	.section	.text$_ZN19TrianglesGenerationC1ERKSt6vectorISt10shared_ptrI4EdgeESaIS3_EERKN4math7Vector2E,"x"
	.linkonce discard
	.align 2
	.globl	_ZN19TrianglesGenerationC1ERKSt6vectorISt10shared_ptrI4EdgeESaIS3_EERKN4math7Vector2E
	.def	_ZN19TrianglesGenerationC1ERKSt6vectorISt10shared_ptrI4EdgeESaIS3_EERKN4math7Vector2E;	.scl	2;	.type	32;	.endef
	.seh_proc	_ZN19TrianglesGenerationC1ERKSt6vectorISt10shared_ptrI4EdgeESaIS3_EERKN4math7Vector2E
_ZN19TrianglesGenerationC1ERKSt6vectorISt10shared_ptrI4EdgeESaIS3_EERKN4math7Vector2E:
.LFB4109:
	pushq	%rbp
	.seh_pushreg	%rbp
	movq	%rsp, %rbp
	.seh_setframe	%rbp, 0
	subq	$32, %rsp
	.seh_stackalloc	32
	.seh_endprologue
	movq	%rcx, 16(%rbp)
	movq	%rdx, 24(%rbp)
	movq	%r8, 32(%rbp)
	movq	16(%rbp), %rax
	movq	24(%rbp), %rdx
	movq	%rdx, (%rax)
	movq	16(%rbp), %rax
	movq	32(%rbp), %rdx
	movq	(%rdx), %rdx
	movq	%rdx, 8(%rax)
	movq	16(%rbp), %rax
	addq	$16, %rax
	movq	%rax, %rcx
	call	_ZNSt6vectorISt5arrayIfLy3EESaIS1_EEC1Ev
	movq	16(%rbp), %rax
	movss	.LC7(%rip), %xmm0
	movss	%xmm0, 40(%rax)
	nop
	addq	$32, %rsp
	popq	%rbp
	ret
	.seh_endproc
	.section	.text$_ZN19TrianglesGeneration14make_trianglesEv,"x"
	.linkonce discard
	.align 2
	.globl	_ZN19TrianglesGeneration14make_trianglesEv
	.def	_ZN19TrianglesGeneration14make_trianglesEv;	.scl	2;	.type	32;	.endef
	.seh_proc	_ZN19TrianglesGeneration14make_trianglesEv
_ZN19TrianglesGeneration14make_trianglesEv:
.LFB4110:
	pushq	%rbp
	.seh_pushreg	%rbp
	pushq	%rbx
	.seh_pushreg	%rbx
	subq	$248, %rsp
	.seh_stackalloc	248
	leaq	128(%rsp), %rbp
	.seh_setframe	%rbp, 128
	movaps	%xmm6, 64(%rbp)
	.seh_savexmm	%xmm6, 192
	movaps	%xmm7, 80(%rbp)
	.seh_savexmm	%xmm7, 208
	movaps	%xmm8, 96(%rbp)
	.seh_savexmm	%xmm8, 224
	.seh_endprologue
	movq	%rcx, 144(%rbp)
	movq	%rdx, 152(%rbp)
	movq	152(%rbp), %rax
	addq	$16, %rax
	movq	%rax, %rcx
	call	_ZNSt6vectorISt5arrayIfLy3EESaIS1_EE5clearEv
	movq	152(%rbp), %rax
	movq	(%rax), %rax
	movq	%rax, 32(%rbp)
	movq	32(%rbp), %rax
	movq	%rax, %rcx
	call	_ZNKSt6vectorISt10shared_ptrI4EdgeESaIS2_EE5beginEv
	movq	%rax, -40(%rbp)
	movq	32(%rbp), %rax
	movq	%rax, %rcx
	call	_ZNKSt6vectorISt10shared_ptrI4EdgeESaIS2_EE3endEv
	movq	%rax, -48(%rbp)
.L171:
	leaq	-48(%rbp), %rdx
	leaq	-40(%rbp), %rax
	movq	%rax, %rcx
	call	_ZN9__gnu_cxxneIPKSt10shared_ptrI4EdgeESt6vectorIS3_SaIS3_EEEEbRKNS_17__normal_iteratorIT_T0_EESE_
	testb	%al, %al
	je	.L152
	leaq	-40(%rbp), %rax
	movq	%rax, %rcx
	call	_ZNK9__gnu_cxx17__normal_iteratorIPKSt10shared_ptrI4EdgeESt6vectorIS3_SaIS3_EEEdeEv
	movq	%rax, 24(%rbp)
	movl	$0, 60(%rbp)
.L170:
	cmpl	$1, 60(%rbp)
	jg	.L153
	leaq	-56(%rbp), %rax
	pxor	%xmm2, %xmm2
	pxor	%xmm1, %xmm1
	movq	%rax, %rcx
	call	_ZN4math7Vector2C1Eff
	cmpl	$0, 60(%rbp)
	jne	.L154
	movq	152(%rbp), %rax
	leaq	8(%rax), %rbx
	movq	24(%rbp), %rax
	movq	%rax, %rcx
	call	_ZNKSt19__shared_ptr_accessI4EdgeLN9__gnu_cxx12_Lock_policyE2ELb0ELb0EEptEv
	movq	%rbx, %rdx
	movq	%rax, %rcx
	call	_ZN4math7Vector2miERKS0_
	movq	%rax, -56(%rbp)
.L154:
	cmpl	$1, 60(%rbp)
	jne	.L155
	movq	152(%rbp), %rax
	leaq	8(%rax), %rbx
	movq	24(%rbp), %rax
	movq	%rax, %rcx
	call	_ZNKSt19__shared_ptr_accessI4EdgeLN9__gnu_cxx12_Lock_policyE2ELb0ELb0EEptEv
	addq	$8, %rax
	movq	%rbx, %rdx
	movq	%rax, %rcx
	call	_ZN4math7Vector2miERKS0_
	movq	%rax, -56(%rbp)
.L155:
	movl	$0, 56(%rbp)
.L169:
	cmpl	$2, 56(%rbp)
	jg	.L156
	cmpl	$0, 56(%rbp)
	jne	.L157
	leaq	-56(%rbp), %rax
	movss	.LC8(%rip), %xmm1
	movq	%rax, %rcx
	call	_ZN4math7Vector27rotateREf
.L157:
	cmpl	$1, 56(%rbp)
	jne	.L158
	leaq	-56(%rbp), %rax
	movss	.LC9(%rip), %xmm1
	movq	%rax, %rcx
	call	_ZN4math7Vector27rotateREf
.L158:
	cmpl	$2, 56(%rbp)
	jne	.L159
	leaq	-56(%rbp), %rax
	movss	.LC9(%rip), %xmm1
	movq	%rax, %rcx
	call	_ZN4math7Vector27rotateREf
.L159:
	movss	.LC10(%rip), %xmm0
	movss	%xmm0, 52(%rbp)
	leaq	-64(%rbp), %rax
	pxor	%xmm2, %xmm2
	pxor	%xmm1, %xmm1
	movq	%rax, %rcx
	call	_ZN4math7Vector2C1Eff
	movb	$0, 47(%rbp)
	movq	152(%rbp), %rax
	movq	(%rax), %rax
	movq	%rax, 16(%rbp)
	movq	16(%rbp), %rax
	movq	%rax, %rcx
	call	_ZNKSt6vectorISt10shared_ptrI4EdgeESaIS2_EE5beginEv
	movq	%rax, -72(%rbp)
	movq	16(%rbp), %rax
	movq	%rax, %rcx
	call	_ZNKSt6vectorISt10shared_ptrI4EdgeESaIS2_EE3endEv
	movq	%rax, -80(%rbp)
.L167:
	leaq	-80(%rbp), %rdx
	leaq	-72(%rbp), %rax
	movq	%rax, %rcx
	call	_ZN9__gnu_cxxneIPKSt10shared_ptrI4EdgeESt6vectorIS3_SaIS3_EEEEbRKNS_17__normal_iteratorIT_T0_EESE_
	testb	%al, %al
	je	.L160
	leaq	-72(%rbp), %rax
	movq	%rax, %rcx
	call	_ZNK9__gnu_cxx17__normal_iteratorIPKSt10shared_ptrI4EdgeESt6vectorIS3_SaIS3_EEEdeEv
	movq	%rax, 8(%rbp)
	movq	8(%rbp), %rax
	movq	%rax, %rcx
	call	_ZNKSt19__shared_ptr_accessI4EdgeLN9__gnu_cxx12_Lock_policyE2ELb0ELb0EEptEv
	movq	%rax, %rbx
	movq	8(%rbp), %rax
	movq	%rax, %rcx
	call	_ZNKSt19__shared_ptr_accessI4EdgeLN9__gnu_cxx12_Lock_policyE2ELb0ELb0EEptEv
	addq	$8, %rax
	movq	%rbx, %rdx
	movq	%rax, %rcx
	call	_ZN4math7Vector2miERKS0_
	movq	%rax, -88(%rbp)
	leaq	-56(%rbp), %rdx
	leaq	-88(%rbp), %rax
	movq	%rax, %rcx
	call	_ZN4math7Vector2miERKS0_
	movq	%rax, -28(%rbp)
	leaq	-28(%rbp), %rax
	movq	%rax, %rcx
	call	_ZN4math7Vector26lengthEv
	movaps	%xmm0, %xmm1
	pxor	%xmm0, %xmm0
	comiss	%xmm0, %xmm1
	seta	%al
	testb	%al, %al
	je	.L161
	movss	-56(%rbp), %xmm6
	movq	8(%rbp), %rax
	movq	%rax, %rcx
	call	_ZNKSt19__shared_ptr_accessI4EdgeLN9__gnu_cxx12_Lock_policyE2ELb0ELb0EEptEv
	movss	4(%rax), %xmm0
	movq	152(%rbp), %rax
	movss	12(%rax), %xmm1
	subss	%xmm1, %xmm0
	movaps	%xmm6, %xmm7
	mulss	%xmm0, %xmm7
	movss	-52(%rbp), %xmm8
	movq	152(%rbp), %rax
	movss	8(%rax), %xmm6
	movq	8(%rbp), %rax
	movq	%rax, %rcx
	call	_ZNKSt19__shared_ptr_accessI4EdgeLN9__gnu_cxx12_Lock_policyE2ELb0ELb0EEptEv
	movss	(%rax), %xmm0
	subss	%xmm0, %xmm6
	movaps	%xmm6, %xmm0
	mulss	%xmm8, %xmm0
	addss	%xmm7, %xmm0
	movss	-88(%rbp), %xmm2
	movss	-52(%rbp), %xmm1
	mulss	%xmm2, %xmm1
	movss	-84(%rbp), %xmm3
	movss	-56(%rbp), %xmm2
	mulss	%xmm3, %xmm2
	subss	%xmm2, %xmm1
	divss	%xmm1, %xmm0
	movss	%xmm0, 4(%rbp)
	movq	8(%rbp), %rax
	movq	%rax, %rcx
	call	_ZNKSt19__shared_ptr_accessI4EdgeLN9__gnu_cxx12_Lock_policyE2ELb0ELb0EEptEv
	movss	(%rax), %xmm1
	movss	-88(%rbp), %xmm0
	mulss	4(%rbp), %xmm0
	addss	%xmm1, %xmm0
	movq	152(%rbp), %rax
	movss	8(%rax), %xmm1
	subss	%xmm1, %xmm0
	movss	-56(%rbp), %xmm1
	divss	%xmm1, %xmm0
	movss	%xmm0, 0(%rbp)
	movss	0(%rbp), %xmm0
	pxor	%xmm1, %xmm1
	comiss	%xmm1, %xmm0
	jbe	.L161
	movss	4(%rbp), %xmm0
	pxor	%xmm1, %xmm1
	comiss	%xmm1, %xmm0
	jb	.L161
	movss	.LC11(%rip), %xmm0
	comiss	4(%rbp), %xmm0
	jb	.L161
	movss	52(%rbp), %xmm0
	comiss	0(%rbp), %xmm0
	jbe	.L161
	movss	0(%rbp), %xmm0
	movss	%xmm0, 52(%rbp)
	movss	0(%rbp), %xmm0
	leaq	-56(%rbp), %rax
	movaps	%xmm0, %xmm1
	movq	%rax, %rcx
	call	_ZN4math7Vector2mlEf
	movq	%rax, -20(%rbp)
	movq	152(%rbp), %rax
	leaq	8(%rax), %rcx
	leaq	-20(%rbp), %rax
	movq	%rax, %rdx
	call	_ZN4math7Vector2plERKS0_
	movq	%rax, -64(%rbp)
	movss	-64(%rbp), %xmm0
	movq	152(%rbp), %rax
	movss	8(%rax), %xmm1
	movaps	%xmm0, %xmm2
	subss	%xmm1, %xmm2
	movss	-60(%rbp), %xmm0
	movq	152(%rbp), %rax
	movss	12(%rax), %xmm1
	subss	%xmm1, %xmm0
	movaps	%xmm2, %xmm1
	call	atan2f
	movd	%xmm0, %eax
	movl	%eax, 48(%rbp)
	movb	$1, 47(%rbp)
.L161:
	leaq	-72(%rbp), %rax
	movq	%rax, %rcx
	call	_ZN9__gnu_cxx17__normal_iteratorIPKSt10shared_ptrI4EdgeESt6vectorIS3_SaIS3_EEEppEv
	jmp	.L167
.L160:
	cmpb	$0, 47(%rbp)
	je	.L168
	movq	152(%rbp), %rax
	leaq	16(%rax), %rcx
	movss	-64(%rbp), %xmm0
	movss	%xmm0, -12(%rbp)
	movss	-60(%rbp), %xmm0
	movss	%xmm0, -8(%rbp)
	movss	48(%rbp), %xmm0
	movss	%xmm0, -4(%rbp)
	leaq	-12(%rbp), %rax
	movq	%rax, %rdx
	call	_ZNSt6vectorISt5arrayIfLy3EESaIS1_EE9push_backEOS1_
.L168:
	addl	$1, 56(%rbp)
	jmp	.L169
.L156:
	addl	$1, 60(%rbp)
	jmp	.L170
.L153:
	leaq	-40(%rbp), %rax
	movq	%rax, %rcx
	call	_ZN9__gnu_cxx17__normal_iteratorIPKSt10shared_ptrI4EdgeESt6vectorIS3_SaIS3_EEEppEv
	jmp	.L171
.L152:
	movq	152(%rbp), %rax
	movq	%rax, %rcx
	call	_ZN19TrianglesGeneration14sort_trianglesEv
	movq	152(%rbp), %rax
	movq	%rax, %rcx
	call	_ZN19TrianglesGeneration16filter_triangelsEv
	movq	152(%rbp), %rax
	addq	$16, %rax
	movq	%rax, %rdx
	movq	144(%rbp), %rcx
	call	_ZNSt6vectorISt5arrayIfLy3EESaIS1_EEC1ERKS3_
	movq	144(%rbp), %rax
	movaps	64(%rbp), %xmm6
	movaps	80(%rbp), %xmm7
	movaps	96(%rbp), %xmm8
	addq	$248, %rsp
	popq	%rbx
	popq	%rbp
	ret
	.seh_endproc
	.section	.text$_ZN14EdgesGeneratorD1Ev,"x"
	.linkonce discard
	.align 2
	.globl	_ZN14EdgesGeneratorD1Ev
	.def	_ZN14EdgesGeneratorD1Ev;	.scl	2;	.type	32;	.endef
	.seh_proc	_ZN14EdgesGeneratorD1Ev
_ZN14EdgesGeneratorD1Ev:
.LFB4114:
	pushq	%rbp
	.seh_pushreg	%rbp
	movq	%rsp, %rbp
	.seh_setframe	%rbp, 0
	subq	$32, %rsp
	.seh_stackalloc	32
	.seh_endprologue
	movq	%rcx, 16(%rbp)
	movq	16(%rbp), %rax
	addq	$40, %rax
	movq	%rax, %rcx
	call	_ZNSt6vectorISt10shared_ptrI4EdgeESaIS2_EED1Ev
	movq	16(%rbp), %rax
	addq	$16, %rax
	movq	%rax, %rcx
	call	_ZNSt6vectorIS_I4CellSaIS0_EESaIS2_EED1Ev
	nop
	addq	$32, %rsp
	popq	%rbp
	ret
	.seh_endproc
	.section	.text$_ZN5World12update_edgesERKN2sf7Vector2IiEE,"x"
	.linkonce discard
	.align 2
	.globl	_ZN5World12update_edgesERKN2sf7Vector2IiEE
	.def	_ZN5World12update_edgesERKN2sf7Vector2IiEE;	.scl	2;	.type	32;	.endef
	.seh_proc	_ZN5World12update_edgesERKN2sf7Vector2IiEE
_ZN5World12update_edgesERKN2sf7Vector2IiEE:
.LFB4111:
	pushq	%rbp
	.seh_pushreg	%rbp
	pushq	%rbx
	.seh_pushreg	%rbx
	subq	$168, %rsp
	.seh_stackalloc	168
	leaq	128(%rsp), %rbp
	.seh_setframe	%rbp, 128
	.seh_endprologue
	movq	%rcx, 64(%rbp)
	movq	%rdx, 72(%rbp)
	movl	$0, %ecx
	movq	__imp__ZN2sf5Mouse15isButtonPressedENS0_6ButtonE(%rip), %rax
.LEHB25:
	call	*%rax
	testb	%al, %al
	je	.L183
	movq	72(%rbp), %rax
	movl	(%rax), %eax
	testl	%eax, %eax
	js	.L183
	movq	72(%rbp), %rax
	movl	(%rax), %edx
	movq	64(%rbp), %rax
	movl	(%rax), %eax
	cmpl	%eax, %edx
	jge	.L183
	movq	72(%rbp), %rax
	movl	4(%rax), %eax
	testl	%eax, %eax
	js	.L183
	movq	72(%rbp), %rax
	movl	4(%rax), %edx
	movq	64(%rbp), %rax
	movl	4(%rax), %eax
	cmpl	%eax, %edx
	jge	.L183
	movq	72(%rbp), %rax
	movl	(%rax), %eax
	movq	64(%rbp), %rdx
	movl	8(%rdx), %ebx
	cltd
	idivl	%ebx
	movl	%eax, -72(%rbp)
	movq	72(%rbp), %rax
	movl	4(%rax), %eax
	movq	64(%rbp), %rdx
	movl	8(%rdx), %ebx
	cltd
	idivl	%ebx
	movl	%eax, -68(%rbp)
	movl	-72(%rbp), %eax
	movslq	%eax, %rbx
	movl	-68(%rbp), %eax
	cltq
	movq	64(%rbp), %rdx
	leaq	16(%rdx), %rcx
	movq	%rax, %rdx
	call	_ZNSt6vectorIS_I4CellSaIS0_EESaIS2_EEixEy
	movq	%rbx, %rdx
	movq	%rax, %rcx
	call	_ZNSt6vectorI4CellSaIS0_EEixEy
	movb	$1, (%rax)
	movq	64(%rbp), %rax
	addq	$40, %rax
	movq	%rax, %rcx
	call	_ZNSt6vectorISt10shared_ptrI4EdgeESaIS2_EE5clearEv
	movq	64(%rbp), %rax
	movl	8(%rax), %ecx
	movq	64(%rbp), %rax
	movl	4(%rax), %r9d
	movq	64(%rbp), %rax
	movl	(%rax), %r8d
	movq	64(%rbp), %rax
	leaq	16(%rax), %rdx
	leaq	-32(%rbp), %rax
	movl	%ecx, 32(%rsp)
	movq	%rax, %rcx
	call	_ZN14EdgesGeneratorC1ERKSt6vectorIS0_I4CellSaIS1_EESaIS3_EEiii
.LEHE25:
	leaq	-64(%rbp), %rax
	leaq	-32(%rbp), %rdx
	movq	%rax, %rcx
.LEHB26:
	call	_ZN14EdgesGenerator10make_edgesEv
.LEHE26:
	movq	64(%rbp), %rax
	leaq	40(%rax), %rcx
	leaq	-64(%rbp), %rax
	movq	%rax, %rdx
	call	_ZNSt6vectorISt10shared_ptrI4EdgeESaIS2_EEaSEOS4_
	leaq	-64(%rbp), %rax
	movq	%rax, %rcx
	call	_ZNSt6vectorISt10shared_ptrI4EdgeESaIS2_EED1Ev
	leaq	-32(%rbp), %rax
	movq	%rax, %rcx
	call	_ZN14EdgesGeneratorD1Ev
	jmp	.L183
.L182:
	movq	%rax, %rbx
	leaq	-32(%rbp), %rax
	movq	%rax, %rcx
	call	_ZN14EdgesGeneratorD1Ev
	movq	%rbx, %rax
	movq	%rax, %rcx
.LEHB27:
	call	_Unwind_Resume
.LEHE27:
.L183:
	nop
	addq	$168, %rsp
	popq	%rbx
	popq	%rbp
	ret
	.seh_handler	__gxx_personality_seh0, @unwind, @except
	.seh_handlerdata
.LLSDA4111:
	.byte	0xff
	.byte	0xff
	.byte	0x1
	.uleb128 .LLSDACSE4111-.LLSDACSB4111
.LLSDACSB4111:
	.uleb128 .LEHB25-.LFB4111
	.uleb128 .LEHE25-.LEHB25
	.uleb128 0
	.uleb128 0
	.uleb128 .LEHB26-.LFB4111
	.uleb128 .LEHE26-.LEHB26
	.uleb128 .L182-.LFB4111
	.uleb128 0
	.uleb128 .LEHB27-.LFB4111
	.uleb128 .LEHE27-.LEHB27
	.uleb128 0
	.uleb128 0
.LLSDACSE4111:
	.section	.text$_ZN5World12update_edgesERKN2sf7Vector2IiEE,"x"
	.linkonce discard
	.seh_endproc
	.section	.text$_ZN19TrianglesGenerationD1Ev,"x"
	.linkonce discard
	.align 2
	.globl	_ZN19TrianglesGenerationD1Ev
	.def	_ZN19TrianglesGenerationD1Ev;	.scl	2;	.type	32;	.endef
	.seh_proc	_ZN19TrianglesGenerationD1Ev
_ZN19TrianglesGenerationD1Ev:
.LFB4121:
	pushq	%rbp
	.seh_pushreg	%rbp
	movq	%rsp, %rbp
	.seh_setframe	%rbp, 0
	subq	$32, %rsp
	.seh_stackalloc	32
	.seh_endprologue
	movq	%rcx, 16(%rbp)
	movq	16(%rbp), %rax
	addq	$16, %rax
	movq	%rax, %rcx
	call	_ZNSt6vectorISt5arrayIfLy3EESaIS1_EED1Ev
	nop
	addq	$32, %rsp
	popq	%rbp
	ret
	.seh_endproc
	.section	.text$_ZN5World16update_trianglesERKN2sf7Vector2IiEE,"x"
	.linkonce discard
	.align 2
	.globl	_ZN5World16update_trianglesERKN2sf7Vector2IiEE
	.def	_ZN5World16update_trianglesERKN2sf7Vector2IiEE;	.scl	2;	.type	32;	.endef
	.seh_proc	_ZN5World16update_trianglesERKN2sf7Vector2IiEE
_ZN5World16update_trianglesERKN2sf7Vector2IiEE:
.LFB4118:
	pushq	%rbp
	.seh_pushreg	%rbp
	pushq	%rbx
	.seh_pushreg	%rbx
	subq	$136, %rsp
	.seh_stackalloc	136
	leaq	128(%rsp), %rbp
	.seh_setframe	%rbp, 128
	.seh_endprologue
	movq	%rcx, 32(%rbp)
	movq	%rdx, 40(%rbp)
	movq	32(%rbp), %rax
	addq	$64, %rax
	movq	%rax, %rcx
	call	_ZNSt6vectorISt5arrayIfLy3EESaIS1_EE5clearEv
	movl	$1, %ecx
	movq	__imp__ZN2sf5Mouse15isButtonPressedENS0_6ButtonE(%rip), %rax
.LEHB28:
	call	*%rax
.LEHE28:
	testb	%al, %al
	je	.L189
	movq	40(%rbp), %rax
	movl	(%rax), %eax
	cvtsi2ss	%eax, %xmm0
	movq	40(%rbp), %rax
	movl	4(%rax), %eax
	cvtsi2ss	%eax, %xmm1
	leaq	-8(%rbp), %rax
	movaps	%xmm1, %xmm2
	movaps	%xmm0, %xmm1
	movq	%rax, %rcx
	call	_ZN4math7Vector2C1Eff
	movq	32(%rbp), %rax
	leaq	40(%rax), %rdx
	leaq	-8(%rbp), %rcx
	leaq	-64(%rbp), %rax
	movq	%rcx, %r8
	movq	%rax, %rcx
	call	_ZN19TrianglesGenerationC1ERKSt6vectorISt10shared_ptrI4EdgeESaIS3_EERKN4math7Vector2E
	leaq	-96(%rbp), %rax
	leaq	-64(%rbp), %rdx
	movq	%rax, %rcx
.LEHB29:
	call	_ZN19TrianglesGeneration14make_trianglesEv
.LEHE29:
	movq	32(%rbp), %rax
	leaq	64(%rax), %rcx
	leaq	-96(%rbp), %rax
	movq	%rax, %rdx
	call	_ZNSt6vectorISt5arrayIfLy3EESaIS1_EEaSEOS3_
	leaq	-96(%rbp), %rax
	movq	%rax, %rcx
	call	_ZNSt6vectorISt5arrayIfLy3EESaIS1_EED1Ev
	leaq	-64(%rbp), %rax
	movq	%rax, %rcx
	call	_ZN19TrianglesGenerationD1Ev
	jmp	.L189
.L188:
	movq	%rax, %rbx
	leaq	-64(%rbp), %rax
	movq	%rax, %rcx
	call	_ZN19TrianglesGenerationD1Ev
	movq	%rbx, %rax
	movq	%rax, %rcx
.LEHB30:
	call	_Unwind_Resume
.LEHE30:
.L189:
	nop
	addq	$136, %rsp
	popq	%rbx
	popq	%rbp
	ret
	.seh_handler	__gxx_personality_seh0, @unwind, @except
	.seh_handlerdata
.LLSDA4118:
	.byte	0xff
	.byte	0xff
	.byte	0x1
	.uleb128 .LLSDACSE4118-.LLSDACSB4118
.LLSDACSB4118:
	.uleb128 .LEHB28-.LFB4118
	.uleb128 .LEHE28-.LEHB28
	.uleb128 0
	.uleb128 0
	.uleb128 .LEHB29-.LFB4118
	.uleb128 .LEHE29-.LEHB29
	.uleb128 .L188-.LFB4118
	.uleb128 0
	.uleb128 .LEHB30-.LFB4118
	.uleb128 .LEHE30-.LEHB30
	.uleb128 0
	.uleb128 0
.LLSDACSE4118:
	.section	.text$_ZN5World16update_trianglesERKN2sf7Vector2IiEE,"x"
	.linkonce discard
	.seh_endproc
	.section	.text$_ZN2sf6StringD1Ev,"x"
	.linkonce discard
	.align 2
	.globl	_ZN2sf6StringD1Ev
	.def	_ZN2sf6StringD1Ev;	.scl	2;	.type	32;	.endef
	.seh_proc	_ZN2sf6StringD1Ev
_ZN2sf6StringD1Ev:
.LFB4128:
	pushq	%rbp
	.seh_pushreg	%rbp
	movq	%rsp, %rbp
	.seh_setframe	%rbp, 0
	subq	$32, %rsp
	.seh_stackalloc	32
	.seh_endprologue
	movq	%rcx, 16(%rbp)
	movq	16(%rbp), %rax
	movq	%rax, %rcx
	call	_ZNSt7__cxx1112basic_stringIjSt11char_traitsIjESaIjEED1Ev
	nop
	addq	$32, %rsp
	popq	%rbp
	ret
	.seh_endproc
	.section .rdata,"dr"
.LC12:
	.ascii "Light Casting\0"
	.section	.text$_ZN5WorldC1EiiiRKN2sf15ContextSettingsE,"x"
	.linkonce discard
	.align 2
	.globl	_ZN5WorldC1EiiiRKN2sf15ContextSettingsE
	.def	_ZN5WorldC1EiiiRKN2sf15ContextSettingsE;	.scl	2;	.type	32;	.endef
	.seh_proc	_ZN5WorldC1EiiiRKN2sf15ContextSettingsE
_ZN5WorldC1EiiiRKN2sf15ContextSettingsE:
.LFB4130:
	pushq	%rbp
	.seh_pushreg	%rbp
	pushq	%rbx
	.seh_pushreg	%rbx
	subq	$216, %rsp
	.seh_stackalloc	216
	leaq	128(%rsp), %rbp
	.seh_setframe	%rbp, 128
	.seh_endprologue
	movq	%rcx, 112(%rbp)
	movl	%edx, 120(%rbp)
	movl	%r8d, 128(%rbp)
	movl	%r9d, 136(%rbp)
	movq	112(%rbp), %rax
	movl	120(%rbp), %edx
	movl	%edx, (%rax)
	movq	112(%rbp), %rax
	movl	128(%rbp), %edx
	movl	%edx, 4(%rax)
	movq	112(%rbp), %rax
	movl	136(%rbp), %edx
	movl	%edx, 8(%rax)
	movq	112(%rbp), %rax
	leaq	16(%rax), %rbx
	leaq	-49(%rbp), %rax
	movq	%rax, %rcx
	call	_ZNSaISt6vectorI4CellSaIS0_EEEC1Ev
	leaq	-17(%rbp), %rax
	movq	%rax, %rcx
	call	_ZNSaI4CellEC1Ev
	movl	120(%rbp), %eax
	cltd
	idivl	136(%rbp)
	movslq	%eax, %rdx
	leaq	-17(%rbp), %rcx
	leaq	-48(%rbp), %rax
	movq	%rcx, %r8
	movq	%rax, %rcx
.LEHB31:
	call	_ZNSt6vectorI4CellSaIS0_EEC1EyRKS1_
.LEHE31:
	movl	128(%rbp), %eax
	cltd
	idivl	136(%rbp)
	cltq
	leaq	-49(%rbp), %rcx
	leaq	-48(%rbp), %rdx
	movq	%rcx, %r9
	movq	%rdx, %r8
	movq	%rax, %rdx
	movq	%rbx, %rcx
.LEHB32:
	call	_ZNSt6vectorIS_I4CellSaIS0_EESaIS2_EEC1EyRKS2_RKS3_
.LEHE32:
	leaq	-48(%rbp), %rax
	movq	%rax, %rcx
	call	_ZNSt6vectorI4CellSaIS0_EED1Ev
	leaq	-17(%rbp), %rax
	movq	%rax, %rcx
	call	_ZNSaI4CellED1Ev
	leaq	-49(%rbp), %rax
	movq	%rax, %rcx
	call	_ZNSaISt6vectorI4CellSaIS0_EEED1Ev
	movq	112(%rbp), %rax
	addq	$40, %rax
	movq	%rax, %rcx
	call	_ZNSt6vectorISt10shared_ptrI4EdgeESaIS2_EEC1Ev
	movq	112(%rbp), %rax
	addq	$64, %rax
	movq	%rax, %rcx
	call	_ZNSt6vectorISt5arrayIfLy3EESaIS1_EEC1Ev
	movq	112(%rbp), %rax
	leaq	88(%rax), %rbx
	leaq	24(%rbp), %rax
	movq	%rax, %rcx
	call	_ZNSt6localeC1Ev
	leaq	24(%rbp), %rdx
	leaq	-16(%rbp), %rax
	movq	%rdx, %r8
	leaq	.LC12(%rip), %rdx
	movq	%rax, %rcx
	movq	__imp__ZN2sf6StringC1EPKcRKSt6locale(%rip), %rax
.LEHB33:
	call	*%rax
.LEHE33:
	movl	128(%rbp), %ecx
	movl	120(%rbp), %edx
	leaq	36(%rbp), %rax
	movl	$32, %r9d
	movl	%ecx, %r8d
	movq	%rax, %rcx
	movq	__imp__ZN2sf9VideoModeC1Ejjj(%rip), %rax
.LEHB34:
	call	*%rax
	movq	36(%rbp), %rax
	movq	%rax, -80(%rbp)
	movl	44(%rbp), %eax
	movl	%eax, -72(%rbp)
	leaq	-16(%rbp), %rdx
	leaq	-80(%rbp), %rax
	movq	144(%rbp), %rcx
	movq	%rcx, 32(%rsp)
	movl	$5, %r9d
	movq	%rdx, %r8
	movq	%rax, %rdx
	movq	%rbx, %rcx
	movq	__imp__ZN2sf12RenderWindowC1ENS_9VideoModeERKNS_6StringEjRKNS_15ContextSettingsE(%rip), %rax
	call	*%rax
.LEHE34:
	leaq	-16(%rbp), %rax
	movq	%rax, %rcx
	call	_ZN2sf6StringD1Ev
	leaq	24(%rbp), %rax
	movq	%rax, %rcx
	call	_ZNSt6localeD1Ev
	movq	112(%rbp), %rax
	addq	$616, %rax
	movl	136(%rbp), %r8d
	movl	128(%rbp), %ecx
	movl	120(%rbp), %edx
	movl	%r8d, %r9d
	movl	%ecx, %r8d
	movq	%rax, %rcx
	call	_ZN4DrawC1Eiii
	movq	$1, 72(%rbp)
.L193:
	movq	112(%rbp), %rax
	addq	$16, %rax
	movq	%rax, %rcx
	call	_ZNKSt6vectorIS_I4CellSaIS0_EESaIS2_EE4sizeEv
	subq	$1, %rax
	cmpq	%rax, 72(%rbp)
	setb	%al
	testb	%al, %al
	je	.L192
	movq	112(%rbp), %rax
	addq	$16, %rax
	movq	72(%rbp), %rdx
	movq	%rax, %rcx
	call	_ZNSt6vectorIS_I4CellSaIS0_EESaIS2_EEixEy
	movl	$1, %edx
	movq	%rax, %rcx
	call	_ZNSt6vectorI4CellSaIS0_EEixEy
	movb	$1, (%rax)
	addq	$1, 72(%rbp)
	jmp	.L193
.L192:
	movq	$1, 64(%rbp)
.L195:
	movq	112(%rbp), %rax
	addq	$16, %rax
	movq	%rax, %rcx
	call	_ZNKSt6vectorIS_I4CellSaIS0_EESaIS2_EE4sizeEv
	subq	$1, %rax
	cmpq	%rax, 64(%rbp)
	setb	%al
	testb	%al, %al
	je	.L194
	movq	112(%rbp), %rax
	addq	$16, %rax
	movq	%rax, %rcx
	call	_ZNKSt6vectorIS_I4CellSaIS0_EESaIS2_EE4sizeEv
	leaq	-2(%rax), %rbx
	movq	112(%rbp), %rax
	addq	$16, %rax
	movq	64(%rbp), %rdx
	movq	%rax, %rcx
	call	_ZNSt6vectorIS_I4CellSaIS0_EESaIS2_EEixEy
	movq	%rbx, %rdx
	movq	%rax, %rcx
	call	_ZNSt6vectorI4CellSaIS0_EEixEy
	movb	$1, (%rax)
	addq	$1, 64(%rbp)
	jmp	.L195
.L194:
	movq	$1, 56(%rbp)
.L197:
	movq	112(%rbp), %rax
	addq	$16, %rax
	movl	$0, %edx
	movq	%rax, %rcx
	call	_ZNSt6vectorIS_I4CellSaIS0_EESaIS2_EEixEy
	movq	%rax, %rcx
	call	_ZNKSt6vectorI4CellSaIS0_EE4sizeEv
	subq	$1, %rax
	cmpq	%rax, 56(%rbp)
	setb	%al
	testb	%al, %al
	je	.L196
	movq	112(%rbp), %rax
	addq	$16, %rax
	movl	$1, %edx
	movq	%rax, %rcx
	call	_ZNSt6vectorIS_I4CellSaIS0_EESaIS2_EEixEy
	movq	%rax, %rcx
	movq	56(%rbp), %rax
	movq	%rax, %rdx
	call	_ZNSt6vectorI4CellSaIS0_EEixEy
	movb	$1, (%rax)
	addq	$1, 56(%rbp)
	jmp	.L197
.L196:
	movq	$1, 48(%rbp)
.L199:
	movq	112(%rbp), %rax
	addq	$16, %rax
	movl	$0, %edx
	movq	%rax, %rcx
	call	_ZNSt6vectorIS_I4CellSaIS0_EESaIS2_EEixEy
	movq	%rax, %rcx
	call	_ZNKSt6vectorI4CellSaIS0_EE4sizeEv
	subq	$1, %rax
	cmpq	%rax, 48(%rbp)
	setb	%al
	testb	%al, %al
	je	.L208
	movq	112(%rbp), %rax
	addq	$16, %rax
	movl	$0, %edx
	movq	%rax, %rcx
	call	_ZNSt6vectorIS_I4CellSaIS0_EESaIS2_EEixEy
	movq	%rax, %rcx
	call	_ZNKSt6vectorI4CellSaIS0_EE4sizeEv
	leaq	-2(%rax), %rdx
	movq	112(%rbp), %rax
	addq	$16, %rax
	movq	%rax, %rcx
	call	_ZNSt6vectorIS_I4CellSaIS0_EESaIS2_EEixEy
	movq	%rax, %rcx
	movq	48(%rbp), %rax
	movq	%rax, %rdx
	call	_ZNSt6vectorI4CellSaIS0_EEixEy
	movb	$1, (%rax)
	addq	$1, 48(%rbp)
	jmp	.L199
.L205:
	movq	%rax, %rbx
	leaq	-48(%rbp), %rax
	movq	%rax, %rcx
	call	_ZNSt6vectorI4CellSaIS0_EED1Ev
	jmp	.L201
.L204:
	movq	%rax, %rbx
.L201:
	leaq	-17(%rbp), %rax
	movq	%rax, %rcx
	call	_ZNSaI4CellED1Ev
	leaq	-49(%rbp), %rax
	movq	%rax, %rcx
	call	_ZNSaISt6vectorI4CellSaIS0_EEED1Ev
	movq	%rbx, %rax
	movq	%rax, %rcx
.LEHB35:
	call	_Unwind_Resume
.L207:
	movq	%rax, %rbx
	leaq	-16(%rbp), %rax
	movq	%rax, %rcx
	call	_ZN2sf6StringD1Ev
	jmp	.L203
.L206:
	movq	%rax, %rbx
.L203:
	leaq	24(%rbp), %rax
	movq	%rax, %rcx
	call	_ZNSt6localeD1Ev
	movq	112(%rbp), %rax
	addq	$64, %rax
	movq	%rax, %rcx
	call	_ZNSt6vectorISt5arrayIfLy3EESaIS1_EED1Ev
	movq	112(%rbp), %rax
	addq	$40, %rax
	movq	%rax, %rcx
	call	_ZNSt6vectorISt10shared_ptrI4EdgeESaIS2_EED1Ev
	movq	112(%rbp), %rax
	addq	$16, %rax
	movq	%rax, %rcx
	call	_ZNSt6vectorIS_I4CellSaIS0_EESaIS2_EED1Ev
	movq	%rbx, %rax
	movq	%rax, %rcx
	call	_Unwind_Resume
.LEHE35:
.L208:
	nop
	addq	$216, %rsp
	popq	%rbx
	popq	%rbp
	ret
	.seh_handler	__gxx_personality_seh0, @unwind, @except
	.seh_handlerdata
.LLSDA4130:
	.byte	0xff
	.byte	0xff
	.byte	0x1
	.uleb128 .LLSDACSE4130-.LLSDACSB4130
.LLSDACSB4130:
	.uleb128 .LEHB31-.LFB4130
	.uleb128 .LEHE31-.LEHB31
	.uleb128 .L204-.LFB4130
	.uleb128 0
	.uleb128 .LEHB32-.LFB4130
	.uleb128 .LEHE32-.LEHB32
	.uleb128 .L205-.LFB4130
	.uleb128 0
	.uleb128 .LEHB33-.LFB4130
	.uleb128 .LEHE33-.LEHB33
	.uleb128 .L206-.LFB4130
	.uleb128 0
	.uleb128 .LEHB34-.LFB4130
	.uleb128 .LEHE34-.LEHB34
	.uleb128 .L207-.LFB4130
	.uleb128 0
	.uleb128 .LEHB35-.LFB4130
	.uleb128 .LEHE35-.LEHB35
	.uleb128 0
	.uleb128 0
.LLSDACSE4130:
	.section	.text$_ZN5WorldC1EiiiRKN2sf15ContextSettingsE,"x"
	.linkonce discard
	.seh_endproc
	.section	.text$_ZN5World6updateEv,"x"
	.linkonce discard
	.align 2
	.globl	_ZN5World6updateEv
	.def	_ZN5World6updateEv;	.scl	2;	.type	32;	.endef
	.seh_proc	_ZN5World6updateEv
_ZN5World6updateEv:
.LFB4131:
	pushq	%rbp
	.seh_pushreg	%rbp
	pushq	%rbx
	.seh_pushreg	%rbx
	subq	$104, %rsp
	.seh_stackalloc	104
	leaq	128(%rsp), %rbp
	.seh_setframe	%rbp, 128
	.seh_endprologue
	movq	%rcx, 0(%rbp)
.L214:
	movq	0(%rbp), %rax
	addq	$88, %rax
	movq	%rax, %rcx
	movq	__imp__ZNK2sf6Window6isOpenEv(%rip), %rax
	call	*%rax
	testb	%al, %al
	je	.L215
.L213:
	movq	0(%rbp), %rax
	leaq	88(%rax), %rcx
	leaq	-64(%rbp), %rax
	movq	%rax, %rdx
	movq	__imp__ZN2sf6Window9pollEventERNS_5EventE(%rip), %rax
	call	*%rax
	testb	%al, %al
	je	.L211
	movl	-64(%rbp), %eax
	testl	%eax, %eax
	jne	.L213
	movq	0(%rbp), %rax
	addq	$88, %rax
	movq	%rax, %rcx
	movq	__imp__ZN2sf6Window5closeEv(%rip), %rax
	call	*%rax
	jmp	.L213
.L211:
	movq	0(%rbp), %rax
	leaq	136(%rax), %rbx
	leaq	-44(%rbp), %rax
	movl	$255, 32(%rsp)
	movl	$0, %r9d
	movl	$0, %r8d
	movl	$0, %edx
	movq	%rax, %rcx
	movq	__imp__ZN2sf5ColorC1Ehhhh(%rip), %rax
	call	*%rax
	leaq	-44(%rbp), %rax
	movq	%rax, %rdx
	movq	%rbx, %rcx
	movq	__imp__ZN2sf12RenderTarget5clearERKNS_5ColorE(%rip), %rax
	call	*%rax
	movq	0(%rbp), %rax
	addq	$88, %rax
	movq	%rax, %rcx
	movq	__imp__ZN2sf5Mouse11getPositionERKNS_6WindowE(%rip), %rax
	call	*%rax
	movq	%rax, -72(%rbp)
	leaq	-72(%rbp), %rax
	movq	%rax, %rdx
	movq	0(%rbp), %rcx
	call	_ZN5World12update_edgesERKN2sf7Vector2IiEE
	leaq	-72(%rbp), %rax
	movq	%rax, %rdx
	movq	0(%rbp), %rcx
	call	_ZN5World16update_trianglesERKN2sf7Vector2IiEE
	movq	0(%rbp), %rax
	addq	$616, %rax
	movq	0(%rbp), %rdx
	leaq	16(%rdx), %rcx
	movq	0(%rbp), %rdx
	addq	$88, %rdx
	movq	%rcx, %r8
	movq	%rax, %rcx
	call	_ZN4Draw10draw_cellsERN2sf12RenderWindowERKSt6vectorIS3_I4CellSaIS4_EESaIS6_EE
	movq	0(%rbp), %rax
	addq	$616, %rax
	movq	0(%rbp), %rdx
	leaq	40(%rdx), %rcx
	movq	0(%rbp), %rdx
	addq	$88, %rdx
	movq	%rcx, %r8
	movq	%rax, %rcx
	call	_ZN4Draw10draw_edgesERN2sf12RenderWindowERSt6vectorISt10shared_ptrI4EdgeESaIS6_EE
	movq	0(%rbp), %rax
	leaq	616(%rax), %rbx
	leaq	-72(%rbp), %rdx
	leaq	-40(%rbp), %rax
	movq	%rax, %rcx
	call	_ZN2sf7Vector2IfEC1IiEERKNS0_IT_EE
	movq	0(%rbp), %rax
	leaq	64(%rax), %rcx
	movq	0(%rbp), %rax
	addq	$88, %rax
	leaq	-40(%rbp), %rdx
	movq	%rdx, %r9
	movq	%rcx, %r8
	movq	%rax, %rdx
	movq	%rbx, %rcx
	call	_ZN4Draw14draw_trianglesERN2sf12RenderWindowERKSt6vectorISt5arrayIfLy3EESaIS5_EERKNS0_7Vector2IfEE
	movq	0(%rbp), %rax
	addq	$88, %rax
	movq	%rax, %rcx
	movq	__imp__ZN2sf6Window7displayEv(%rip), %rax
	call	*%rax
	jmp	.L214
.L215:
	nop
	addq	$104, %rsp
	popq	%rbx
	popq	%rbp
	ret
	.seh_endproc
	.section	.text$_ZN5WorldD1Ev,"x"
	.linkonce discard
	.align 2
	.globl	_ZN5WorldD1Ev
	.def	_ZN5WorldD1Ev;	.scl	2;	.type	32;	.endef
	.seh_proc	_ZN5WorldD1Ev
_ZN5WorldD1Ev:
.LFB4135:
	pushq	%rbp
	.seh_pushreg	%rbp
	movq	%rsp, %rbp
	.seh_setframe	%rbp, 0
	subq	$32, %rsp
	.seh_stackalloc	32
	.seh_endprologue
	movq	%rcx, 16(%rbp)
	movq	16(%rbp), %rax
	addq	$88, %rax
	movq	%rax, %rcx
	movq	__imp__ZN2sf12RenderWindowD1Ev(%rip), %rax
	call	*%rax
	movq	16(%rbp), %rax
	addq	$64, %rax
	movq	%rax, %rcx
	call	_ZNSt6vectorISt5arrayIfLy3EESaIS1_EED1Ev
	movq	16(%rbp), %rax
	addq	$40, %rax
	movq	%rax, %rcx
	call	_ZNSt6vectorISt10shared_ptrI4EdgeESaIS2_EED1Ev
	movq	16(%rbp), %rax
	addq	$16, %rax
	movq	%rax, %rcx
	call	_ZNSt6vectorIS_I4CellSaIS0_EESaIS2_EED1Ev
	nop
	addq	$32, %rsp
	popq	%rbp
	ret
	.seh_endproc
	.def	__main;	.scl	2;	.type	32;	.endef
	.text
	.globl	main
	.def	main;	.scl	2;	.type	32;	.endef
	.seh_proc	main
main:
.LFB4132:
	pushq	%rbp
	.seh_pushreg	%rbp
	pushq	%rbx
	.seh_pushreg	%rbx
	subq	$760, %rsp
	.seh_stackalloc	760
	leaq	128(%rsp), %rbp
	.seh_setframe	%rbp, 128
	.seh_endprologue
	call	__main
	movl	$800, 620(%rbp)
	movl	$800, 616(%rbp)
	movl	$20, 612(%rbp)
	leaq	576(%rbp), %rax
	movl	$0, 56(%rsp)
	movl	$0, 48(%rsp)
	movl	$1, 40(%rsp)
	movl	$1, 32(%rsp)
	movl	$0, %r9d
	movl	$0, %r8d
	movl	$0, %edx
	movq	%rax, %rcx
	call	_ZN2sf15ContextSettingsC1Ejjjjjjb
	movl	$8, 584(%rbp)
	movl	612(%rbp), %r9d
	movl	616(%rbp), %r8d
	movl	620(%rbp), %ecx
	leaq	-64(%rbp), %rax
	leaq	576(%rbp), %rdx
	movq	%rdx, 32(%rsp)
	movl	%ecx, %edx
	movq	%rax, %rcx
.LEHB36:
	call	_ZN5WorldC1EiiiRKN2sf15ContextSettingsE
.LEHE36:
	leaq	-64(%rbp), %rax
	movq	%rax, %rcx
.LEHB37:
	call	_ZN5World6updateEv
.LEHE37:
	leaq	-64(%rbp), %rax
	movq	%rax, %rcx
	call	_ZN5WorldD1Ev
	movl	$0, %eax
	jmp	.L221
.L220:
	movq	%rax, %rbx
	leaq	-64(%rbp), %rax
	movq	%rax, %rcx
	call	_ZN5WorldD1Ev
	movq	%rbx, %rax
	movq	%rax, %rcx
.LEHB38:
	call	_Unwind_Resume
.LEHE38:
.L221:
	addq	$760, %rsp
	popq	%rbx
	popq	%rbp
	ret
	.seh_handler	__gxx_personality_seh0, @unwind, @except
	.seh_handlerdata
.LLSDA4132:
	.byte	0xff
	.byte	0xff
	.byte	0x1
	.uleb128 .LLSDACSE4132-.LLSDACSB4132
.LLSDACSB4132:
	.uleb128 .LEHB36-.LFB4132
	.uleb128 .LEHE36-.LEHB36
	.uleb128 0
	.uleb128 0
	.uleb128 .LEHB37-.LFB4132
	.uleb128 .LEHE37-.LEHB37
	.uleb128 .L220-.LFB4132
	.uleb128 0
	.uleb128 .LEHB38-.LFB4132
	.uleb128 .LEHE38-.LEHB38
	.uleb128 0
	.uleb128 0
.LLSDACSE4132:
	.text
	.seh_endproc
	.section	.text$_ZN2sf7Vector2IfEC1Eff,"x"
	.linkonce discard
	.align 2
	.globl	_ZN2sf7Vector2IfEC1Eff
	.def	_ZN2sf7Vector2IfEC1Eff;	.scl	2;	.type	32;	.endef
	.seh_proc	_ZN2sf7Vector2IfEC1Eff
_ZN2sf7Vector2IfEC1Eff:
.LFB4397:
	pushq	%rbp
	.seh_pushreg	%rbp
	movq	%rsp, %rbp
	.seh_setframe	%rbp, 0
	.seh_endprologue
	movq	%rcx, 16(%rbp)
	movss	%xmm1, 24(%rbp)
	movss	%xmm2, 32(%rbp)
	movq	16(%rbp), %rax
	movss	24(%rbp), %xmm0
	movss	%xmm0, (%rax)
	movq	16(%rbp), %rax
	movss	32(%rbp), %xmm0
	movss	%xmm0, 4(%rax)
	nop
	popq	%rbp
	ret
	.seh_endproc
	.section	.text$_ZNSt5arrayIiLy2EEixEy,"x"
	.linkonce discard
	.align 2
	.globl	_ZNSt5arrayIiLy2EEixEy
	.def	_ZNSt5arrayIiLy2EEixEy;	.scl	2;	.type	32;	.endef
	.seh_proc	_ZNSt5arrayIiLy2EEixEy
_ZNSt5arrayIiLy2EEixEy:
.LFB4402:
	pushq	%rbp
	.seh_pushreg	%rbp
	movq	%rsp, %rbp
	.seh_setframe	%rbp, 0
	subq	$32, %rsp
	.seh_stackalloc	32
	.seh_endprologue
	movq	%rcx, 16(%rbp)
	movq	%rdx, 24(%rbp)
	movq	16(%rbp), %rax
	movq	24(%rbp), %rdx
	movq	%rax, %rcx
	call	_ZNSt14__array_traitsIiLy2EE6_S_refERA2_Kiy
	addq	$32, %rsp
	popq	%rbp
	ret
	.seh_endproc
	.section	.text$_ZNSt14__shared_countILN9__gnu_cxx12_Lock_policyE2EED1Ev,"x"
	.linkonce discard
	.align 2
	.globl	_ZNSt14__shared_countILN9__gnu_cxx12_Lock_policyE2EED1Ev
	.def	_ZNSt14__shared_countILN9__gnu_cxx12_Lock_policyE2EED1Ev;	.scl	2;	.type	32;	.endef
	.seh_proc	_ZNSt14__shared_countILN9__gnu_cxx12_Lock_policyE2EED1Ev
_ZNSt14__shared_countILN9__gnu_cxx12_Lock_policyE2EED1Ev:
.LFB4405:
	pushq	%rbp
	.seh_pushreg	%rbp
	movq	%rsp, %rbp
	.seh_setframe	%rbp, 0
	subq	$32, %rsp
	.seh_stackalloc	32
	.seh_endprologue
	movq	%rcx, 16(%rbp)
	movq	16(%rbp), %rax
	movq	(%rax), %rax
	testq	%rax, %rax
	je	.L227
	movq	16(%rbp), %rax
	movq	(%rax), %rax
	movq	%rax, %rcx
	call	_ZNSt16_Sp_counted_baseILN9__gnu_cxx12_Lock_policyE2EE10_M_releaseEv
.L227:
	nop
	addq	$32, %rsp
	popq	%rbp
	ret
	.seh_endproc
	.section	.text$_ZNKSt6vectorISt5arrayIfLy3EESaIS1_EE5emptyEv,"x"
	.linkonce discard
	.align 2
	.globl	_ZNKSt6vectorISt5arrayIfLy3EESaIS1_EE5emptyEv
	.def	_ZNKSt6vectorISt5arrayIfLy3EESaIS1_EE5emptyEv;	.scl	2;	.type	32;	.endef
	.seh_proc	_ZNKSt6vectorISt5arrayIfLy3EESaIS1_EE5emptyEv
_ZNKSt6vectorISt5arrayIfLy3EESaIS1_EE5emptyEv:
.LFB4406:
	pushq	%rbp
	.seh_pushreg	%rbp
	movq	%rsp, %rbp
	.seh_setframe	%rbp, 0
	subq	$48, %rsp
	.seh_stackalloc	48
	.seh_endprologue
	movq	%rcx, 16(%rbp)
	movq	16(%rbp), %rcx
	call	_ZNKSt6vectorISt5arrayIfLy3EESaIS1_EE3endEv
	movq	%rax, -16(%rbp)
	movq	16(%rbp), %rcx
	call	_ZNKSt6vectorISt5arrayIfLy3EESaIS1_EE5beginEv
	movq	%rax, -8(%rbp)
	leaq	-16(%rbp), %rdx
	leaq	-8(%rbp), %rax
	movq	%rax, %rcx
	call	_ZN9__gnu_cxxeqIPKSt5arrayIfLy3EESt6vectorIS2_SaIS2_EEEEbRKNS_17__normal_iteratorIT_T0_EESD_
	nop
	addq	$48, %rsp
	popq	%rbp
	ret
	.seh_endproc
	.section	.text$_ZNSaIN2sf6VertexEEC2Ev,"x"
	.linkonce discard
	.align 2
	.globl	_ZNSaIN2sf6VertexEEC2Ev
	.def	_ZNSaIN2sf6VertexEEC2Ev;	.scl	2;	.type	32;	.endef
	.seh_proc	_ZNSaIN2sf6VertexEEC2Ev
_ZNSaIN2sf6VertexEEC2Ev:
.LFB4408:
	pushq	%rbp
	.seh_pushreg	%rbp
	movq	%rsp, %rbp
	.seh_setframe	%rbp, 0
	subq	$32, %rsp
	.seh_stackalloc	32
	.seh_endprologue
	movq	%rcx, 16(%rbp)
	movq	16(%rbp), %rcx
	call	_ZN9__gnu_cxx13new_allocatorIN2sf6VertexEEC2Ev
	nop
	addq	$32, %rsp
	popq	%rbp
	ret
	.seh_endproc
	.section	.text$_ZNSaIN2sf6VertexEEC1Ev,"x"
	.linkonce discard
	.align 2
	.globl	_ZNSaIN2sf6VertexEEC1Ev
	.def	_ZNSaIN2sf6VertexEEC1Ev;	.scl	2;	.type	32;	.endef
	.seh_proc	_ZNSaIN2sf6VertexEEC1Ev
_ZNSaIN2sf6VertexEEC1Ev:
.LFB4409:
	pushq	%rbp
	.seh_pushreg	%rbp
	movq	%rsp, %rbp
	.seh_setframe	%rbp, 0
	subq	$32, %rsp
	.seh_stackalloc	32
	.seh_endprologue
	movq	%rcx, 16(%rbp)
	movq	16(%rbp), %rcx
	call	_ZN9__gnu_cxx13new_allocatorIN2sf6VertexEEC2Ev
	nop
	addq	$32, %rsp
	popq	%rbp
	ret
	.seh_endproc
	.section	.text$_ZNSaIN2sf6VertexEED2Ev,"x"
	.linkonce discard
	.align 2
	.globl	_ZNSaIN2sf6VertexEED2Ev
	.def	_ZNSaIN2sf6VertexEED2Ev;	.scl	2;	.type	32;	.endef
	.seh_proc	_ZNSaIN2sf6VertexEED2Ev
_ZNSaIN2sf6VertexEED2Ev:
.LFB4411:
	pushq	%rbp
	.seh_pushreg	%rbp
	movq	%rsp, %rbp
	.seh_setframe	%rbp, 0
	subq	$32, %rsp
	.seh_stackalloc	32
	.seh_endprologue
	movq	%rcx, 16(%rbp)
	movq	16(%rbp), %rcx
	call	_ZN9__gnu_cxx13new_allocatorIN2sf6VertexEED2Ev
	nop
	addq	$32, %rsp
	popq	%rbp
	ret
	.seh_endproc
	.section	.text$_ZNSaIN2sf6VertexEED1Ev,"x"
	.linkonce discard
	.align 2
	.globl	_ZNSaIN2sf6VertexEED1Ev
	.def	_ZNSaIN2sf6VertexEED1Ev;	.scl	2;	.type	32;	.endef
	.seh_proc	_ZNSaIN2sf6VertexEED1Ev
_ZNSaIN2sf6VertexEED1Ev:
.LFB4412:
	pushq	%rbp
	.seh_pushreg	%rbp
	movq	%rsp, %rbp
	.seh_setframe	%rbp, 0
	subq	$32, %rsp
	.seh_stackalloc	32
	.seh_endprologue
	movq	%rcx, 16(%rbp)
	movq	16(%rbp), %rcx
	call	_ZN9__gnu_cxx13new_allocatorIN2sf6VertexEED2Ev
	nop
	addq	$32, %rsp
	popq	%rbp
	ret
	.seh_endproc
	.section	.text$_ZNSt6vectorIN2sf6VertexESaIS1_EEC1ESt16initializer_listIS1_ERKS2_,"x"
	.linkonce discard
	.align 2
	.globl	_ZNSt6vectorIN2sf6VertexESaIS1_EEC1ESt16initializer_listIS1_ERKS2_
	.def	_ZNSt6vectorIN2sf6VertexESaIS1_EEC1ESt16initializer_listIS1_ERKS2_;	.scl	2;	.type	32;	.endef
	.seh_proc	_ZNSt6vectorIN2sf6VertexESaIS1_EEC1ESt16initializer_listIS1_ERKS2_
_ZNSt6vectorIN2sf6VertexESaIS1_EEC1ESt16initializer_listIS1_ERKS2_:
.LFB4415:
	pushq	%rbp
	.seh_pushreg	%rbp
	pushq	%rsi
	.seh_pushreg	%rsi
	pushq	%rbx
	.seh_pushreg	%rbx
	movq	%rsp, %rbp
	.seh_setframe	%rbp, 0
	subq	$64, %rsp
	.seh_stackalloc	64
	.seh_endprologue
	movq	%rcx, 32(%rbp)
	movq	%rdx, %rbx
	movq	(%rbx), %rax
	movq	8(%rbx), %rdx
	movq	%rax, -32(%rbp)
	movq	%rdx, -24(%rbp)
	movq	%r8, 48(%rbp)
	movq	32(%rbp), %rax
	movq	48(%rbp), %rdx
	movq	%rax, %rcx
	call	_ZNSt12_Vector_baseIN2sf6VertexESaIS1_EEC2ERKS2_
	leaq	-32(%rbp), %rax
	movq	%rax, %rcx
	call	_ZNKSt16initializer_listIN2sf6VertexEE3endEv
	movq	%rax, %rbx
	leaq	-32(%rbp), %rax
	movq	%rax, %rcx
	call	_ZNKSt16initializer_listIN2sf6VertexEE5beginEv
	movl	%esi, %r9d
	movq	%rbx, %r8
	movq	%rax, %rdx
	movq	32(%rbp), %rcx
.LEHB39:
	call	_ZNSt6vectorIN2sf6VertexESaIS1_EE19_M_range_initializeIPKS1_EEvT_S7_St20forward_iterator_tag
.LEHE39:
	jmp	.L237
.L236:
	movq	%rax, %rbx
	movq	32(%rbp), %rax
	movq	%rax, %rcx
	call	_ZNSt12_Vector_baseIN2sf6VertexESaIS1_EED2Ev
	movq	%rbx, %rax
	movq	%rax, %rcx
.LEHB40:
	call	_Unwind_Resume
	nop
.LEHE40:
.L237:
	addq	$64, %rsp
	popq	%rbx
	popq	%rsi
	popq	%rbp
	ret
	.seh_handler	__gxx_personality_seh0, @unwind, @except
	.seh_handlerdata
.LLSDA4415:
	.byte	0xff
	.byte	0xff
	.byte	0x1
	.uleb128 .LLSDACSE4415-.LLSDACSB4415
.LLSDACSB4415:
	.uleb128 .LEHB39-.LFB4415
	.uleb128 .LEHE39-.LEHB39
	.uleb128 .L236-.LFB4415
	.uleb128 0
	.uleb128 .LEHB40-.LFB4415
	.uleb128 .LEHE40-.LEHB40
	.uleb128 0
	.uleb128 0
.LLSDACSE4415:
	.section	.text$_ZNSt6vectorIN2sf6VertexESaIS1_EEC1ESt16initializer_listIS1_ERKS2_,"x"
	.linkonce discard
	.seh_endproc
	.section	.text$_ZNSt6vectorIN2sf6VertexESaIS1_EED1Ev,"x"
	.linkonce discard
	.align 2
	.globl	_ZNSt6vectorIN2sf6VertexESaIS1_EED1Ev
	.def	_ZNSt6vectorIN2sf6VertexESaIS1_EED1Ev;	.scl	2;	.type	32;	.endef
	.seh_proc	_ZNSt6vectorIN2sf6VertexESaIS1_EED1Ev
_ZNSt6vectorIN2sf6VertexESaIS1_EED1Ev:
.LFB4418:
	pushq	%rbp
	.seh_pushreg	%rbp
	movq	%rsp, %rbp
	.seh_setframe	%rbp, 0
	subq	$32, %rsp
	.seh_stackalloc	32
	.seh_endprologue
	movq	%rcx, 16(%rbp)
	movq	16(%rbp), %rax
	movq	%rax, %rcx
	call	_ZNSt12_Vector_baseIN2sf6VertexESaIS1_EE19_M_get_Tp_allocatorEv
	movq	%rax, %rcx
	movq	16(%rbp), %rax
	movq	8(%rax), %rdx
	movq	16(%rbp), %rax
	movq	(%rax), %rax
	movq	%rcx, %r8
	movq	%rax, %rcx
	call	_ZSt8_DestroyIPN2sf6VertexES1_EvT_S3_RSaIT0_E
	movq	16(%rbp), %rax
	movq	%rax, %rcx
	call	_ZNSt12_Vector_baseIN2sf6VertexESaIS1_EED2Ev
	nop
	addq	$32, %rsp
	popq	%rbp
	ret
	.seh_handler	__gxx_personality_seh0, @unwind, @except
	.seh_handlerdata
.LLSDA4418:
	.byte	0xff
	.byte	0xff
	.byte	0x1
	.uleb128 .LLSDACSE4418-.LLSDACSB4418
.LLSDACSB4418:
.LLSDACSE4418:
	.section	.text$_ZNSt6vectorIN2sf6VertexESaIS1_EED1Ev,"x"
	.linkonce discard
	.seh_endproc
	.section	.text$_ZNKSt6vectorISt5arrayIfLy3EESaIS1_EE4sizeEv,"x"
	.linkonce discard
	.align 2
	.globl	_ZNKSt6vectorISt5arrayIfLy3EESaIS1_EE4sizeEv
	.def	_ZNKSt6vectorISt5arrayIfLy3EESaIS1_EE4sizeEv;	.scl	2;	.type	32;	.endef
	.seh_proc	_ZNKSt6vectorISt5arrayIfLy3EESaIS1_EE4sizeEv
_ZNKSt6vectorISt5arrayIfLy3EESaIS1_EE4sizeEv:
.LFB4419:
	pushq	%rbp
	.seh_pushreg	%rbp
	movq	%rsp, %rbp
	.seh_setframe	%rbp, 0
	.seh_endprologue
	movq	%rcx, 16(%rbp)
	movq	16(%rbp), %rax
	movq	8(%rax), %rdx
	movq	16(%rbp), %rax
	movq	(%rax), %rax
	subq	%rax, %rdx
	movq	%rdx, %rax
	sarq	$2, %rax
	movq	%rax, %rdx
	movabsq	$-6148914691236517205, %rax
	imulq	%rdx, %rax
	popq	%rbp
	ret
	.seh_endproc
	.section .rdata,"dr"
.LC13:
	.ascii "vector::reserve\0"
	.section	.text$_ZNSt6vectorIN2sf6VertexESaIS1_EE7reserveEy,"x"
	.linkonce discard
	.align 2
	.globl	_ZNSt6vectorIN2sf6VertexESaIS1_EE7reserveEy
	.def	_ZNSt6vectorIN2sf6VertexESaIS1_EE7reserveEy;	.scl	2;	.type	32;	.endef
	.seh_proc	_ZNSt6vectorIN2sf6VertexESaIS1_EE7reserveEy
_ZNSt6vectorIN2sf6VertexESaIS1_EE7reserveEy:
.LFB4420:
	pushq	%rbp
	.seh_pushreg	%rbp
	pushq	%rbx
	.seh_pushreg	%rbx
	subq	$56, %rsp
	.seh_stackalloc	56
	leaq	128(%rsp), %rbp
	.seh_setframe	%rbp, 128
	.seh_endprologue
	movq	%rcx, -48(%rbp)
	movq	%rdx, -40(%rbp)
	movq	-48(%rbp), %rcx
	call	_ZNKSt6vectorIN2sf6VertexESaIS1_EE8max_sizeEv
	cmpq	%rax, -40(%rbp)
	seta	%al
	testb	%al, %al
	je	.L242
	leaq	.LC13(%rip), %rcx
	call	_ZSt20__throw_length_errorPKc
.L242:
	movq	-48(%rbp), %rcx
	call	_ZNKSt6vectorIN2sf6VertexESaIS1_EE8capacityEv
	cmpq	%rax, -40(%rbp)
	seta	%al
	testb	%al, %al
	je	.L244
	movq	-48(%rbp), %rcx
	call	_ZNKSt6vectorIN2sf6VertexESaIS1_EE4sizeEv
	movq	%rax, -88(%rbp)
	movq	-48(%rbp), %rax
	movq	8(%rax), %rax
	movq	%rax, %rcx
	call	_ZSt32__make_move_if_noexcept_iteratorIN2sf6VertexESt13move_iteratorIPS1_EET0_PT_
	movq	%rax, %rbx
	movq	-48(%rbp), %rax
	movq	(%rax), %rax
	movq	%rax, %rcx
	call	_ZSt32__make_move_if_noexcept_iteratorIN2sf6VertexESt13move_iteratorIPS1_EET0_PT_
	movq	%rax, %rdx
	movq	-40(%rbp), %rax
	movq	%rbx, %r9
	movq	%rdx, %r8
	movq	%rax, %rdx
	movq	-48(%rbp), %rcx
	call	_ZNSt6vectorIN2sf6VertexESaIS1_EE20_M_allocate_and_copyISt13move_iteratorIPS1_EEES6_yT_S8_
	movq	%rax, -96(%rbp)
	movq	-48(%rbp), %rax
	movq	%rax, %rcx
	call	_ZNSt12_Vector_baseIN2sf6VertexESaIS1_EE19_M_get_Tp_allocatorEv
	movq	%rax, %rcx
	movq	-48(%rbp), %rax
	movq	8(%rax), %rdx
	movq	-48(%rbp), %rax
	movq	(%rax), %rax
	movq	%rcx, %r8
	movq	%rax, %rcx
	call	_ZSt8_DestroyIPN2sf6VertexES1_EvT_S3_RSaIT0_E
	movq	-48(%rbp), %rax
	movq	-48(%rbp), %rdx
	movq	16(%rdx), %rcx
	movq	-48(%rbp), %rdx
	movq	(%rdx), %rdx
	subq	%rdx, %rcx
	movq	%rcx, %rdx
	movq	%rdx, %rcx
	sarq	$2, %rcx
	movabsq	$-3689348814741910323, %rdx
	imulq	%rcx, %rdx
	movq	%rdx, %rcx
	movq	-48(%rbp), %rdx
	movq	(%rdx), %rdx
	movq	%rcx, %r8
	movq	%rax, %rcx
	call	_ZNSt12_Vector_baseIN2sf6VertexESaIS1_EE13_M_deallocateEPS1_y
	movq	-48(%rbp), %rax
	movq	-96(%rbp), %rdx
	movq	%rdx, (%rax)
	movq	-88(%rbp), %rdx
	movq	%rdx, %rax
	salq	$2, %rax
	addq	%rdx, %rax
	salq	$2, %rax
	movq	%rax, %rdx
	movq	-96(%rbp), %rax
	addq	%rax, %rdx
	movq	-48(%rbp), %rax
	movq	%rdx, 8(%rax)
	movq	-48(%rbp), %rax
	movq	(%rax), %rcx
	movq	-40(%rbp), %rdx
	movq	%rdx, %rax
	salq	$2, %rax
	addq	%rdx, %rax
	salq	$2, %rax
	leaq	(%rcx,%rax), %rdx
	movq	-48(%rbp), %rax
	movq	%rdx, 16(%rax)
.L244:
	nop
	addq	$56, %rsp
	popq	%rbx
	popq	%rbp
	ret
	.seh_endproc
	.section	.text$_ZNKSt6vectorISt5arrayIfLy3EESaIS1_EE5beginEv,"x"
	.linkonce discard
	.align 2
	.globl	_ZNKSt6vectorISt5arrayIfLy3EESaIS1_EE5beginEv
	.def	_ZNKSt6vectorISt5arrayIfLy3EESaIS1_EE5beginEv;	.scl	2;	.type	32;	.endef
	.seh_proc	_ZNKSt6vectorISt5arrayIfLy3EESaIS1_EE5beginEv
_ZNKSt6vectorISt5arrayIfLy3EESaIS1_EE5beginEv:
.LFB4421:
	pushq	%rbp
	.seh_pushreg	%rbp
	movq	%rsp, %rbp
	.seh_setframe	%rbp, 0
	subq	$48, %rsp
	.seh_stackalloc	48
	.seh_endprologue
	movq	%rcx, 16(%rbp)
	movq	16(%rbp), %rax
	movq	(%rax), %rax
	movq	%rax, -8(%rbp)
	leaq	-8(%rbp), %rdx
	leaq	-16(%rbp), %rax
	movq	%rax, %rcx
	call	_ZN9__gnu_cxx17__normal_iteratorIPKSt5arrayIfLy3EESt6vectorIS2_SaIS2_EEEC1ERKS4_
	movq	-16(%rbp), %rax
	addq	$48, %rsp
	popq	%rbp
	ret
	.seh_endproc
	.section	.text$_ZNKSt6vectorISt5arrayIfLy3EESaIS1_EE3endEv,"x"
	.linkonce discard
	.align 2
	.globl	_ZNKSt6vectorISt5arrayIfLy3EESaIS1_EE3endEv
	.def	_ZNKSt6vectorISt5arrayIfLy3EESaIS1_EE3endEv;	.scl	2;	.type	32;	.endef
	.seh_proc	_ZNKSt6vectorISt5arrayIfLy3EESaIS1_EE3endEv
_ZNKSt6vectorISt5arrayIfLy3EESaIS1_EE3endEv:
.LFB4422:
	pushq	%rbp
	.seh_pushreg	%rbp
	movq	%rsp, %rbp
	.seh_setframe	%rbp, 0
	subq	$48, %rsp
	.seh_stackalloc	48
	.seh_endprologue
	movq	%rcx, 16(%rbp)
	movq	16(%rbp), %rax
	movq	8(%rax), %rax
	movq	%rax, -8(%rbp)
	leaq	-8(%rbp), %rdx
	leaq	-16(%rbp), %rax
	movq	%rax, %rcx
	call	_ZN9__gnu_cxx17__normal_iteratorIPKSt5arrayIfLy3EESt6vectorIS2_SaIS2_EEEC1ERKS4_
	movq	-16(%rbp), %rax
	addq	$48, %rsp
	popq	%rbp
	ret
	.seh_endproc
	.section	.text$_ZN9__gnu_cxxneIPKSt5arrayIfLy3EESt6vectorIS2_SaIS2_EEEEbRKNS_17__normal_iteratorIT_T0_EESD_,"x"
	.linkonce discard
	.globl	_ZN9__gnu_cxxneIPKSt5arrayIfLy3EESt6vectorIS2_SaIS2_EEEEbRKNS_17__normal_iteratorIT_T0_EESD_
	.def	_ZN9__gnu_cxxneIPKSt5arrayIfLy3EESt6vectorIS2_SaIS2_EEEEbRKNS_17__normal_iteratorIT_T0_EESD_;	.scl	2;	.type	32;	.endef
	.seh_proc	_ZN9__gnu_cxxneIPKSt5arrayIfLy3EESt6vectorIS2_SaIS2_EEEEbRKNS_17__normal_iteratorIT_T0_EESD_
_ZN9__gnu_cxxneIPKSt5arrayIfLy3EESt6vectorIS2_SaIS2_EEEEbRKNS_17__normal_iteratorIT_T0_EESD_:
.LFB4423:
	pushq	%rbp
	.seh_pushreg	%rbp
	pushq	%rbx
	.seh_pushreg	%rbx
	subq	$40, %rsp
	.seh_stackalloc	40
	leaq	128(%rsp), %rbp
	.seh_setframe	%rbp, 128
	.seh_endprologue
	movq	%rcx, -64(%rbp)
	movq	%rdx, -56(%rbp)
	movq	-64(%rbp), %rcx
	call	_ZNK9__gnu_cxx17__normal_iteratorIPKSt5arrayIfLy3EESt6vectorIS2_SaIS2_EEE4baseEv
	movq	(%rax), %rbx
	movq	-56(%rbp), %rax
	movq	%rax, %rcx
	call	_ZNK9__gnu_cxx17__normal_iteratorIPKSt5arrayIfLy3EESt6vectorIS2_SaIS2_EEE4baseEv
	movq	(%rax), %rax
	cmpq	%rax, %rbx
	setne	%al
	addq	$40, %rsp
	popq	%rbx
	popq	%rbp
	ret
	.seh_endproc
	.section	.text$_ZN9__gnu_cxx17__normal_iteratorIPKSt5arrayIfLy3EESt6vectorIS2_SaIS2_EEEppEv,"x"
	.linkonce discard
	.align 2
	.globl	_ZN9__gnu_cxx17__normal_iteratorIPKSt5arrayIfLy3EESt6vectorIS2_SaIS2_EEEppEv
	.def	_ZN9__gnu_cxx17__normal_iteratorIPKSt5arrayIfLy3EESt6vectorIS2_SaIS2_EEEppEv;	.scl	2;	.type	32;	.endef
	.seh_proc	_ZN9__gnu_cxx17__normal_iteratorIPKSt5arrayIfLy3EESt6vectorIS2_SaIS2_EEEppEv
_ZN9__gnu_cxx17__normal_iteratorIPKSt5arrayIfLy3EESt6vectorIS2_SaIS2_EEEppEv:
.LFB4424:
	pushq	%rbp
	.seh_pushreg	%rbp
	movq	%rsp, %rbp
	.seh_setframe	%rbp, 0
	.seh_endprologue
	movq	%rcx, 16(%rbp)
	movq	16(%rbp), %rax
	movq	(%rax), %rax
	leaq	12(%rax), %rdx
	movq	16(%rbp), %rax
	movq	%rdx, (%rax)
	movq	16(%rbp), %rax
	popq	%rbp
	ret
	.seh_endproc
	.section	.text$_ZNK9__gnu_cxx17__normal_iteratorIPKSt5arrayIfLy3EESt6vectorIS2_SaIS2_EEEdeEv,"x"
	.linkonce discard
	.align 2
	.globl	_ZNK9__gnu_cxx17__normal_iteratorIPKSt5arrayIfLy3EESt6vectorIS2_SaIS2_EEEdeEv
	.def	_ZNK9__gnu_cxx17__normal_iteratorIPKSt5arrayIfLy3EESt6vectorIS2_SaIS2_EEEdeEv;	.scl	2;	.type	32;	.endef
	.seh_proc	_ZNK9__gnu_cxx17__normal_iteratorIPKSt5arrayIfLy3EESt6vectorIS2_SaIS2_EEEdeEv
_ZNK9__gnu_cxx17__normal_iteratorIPKSt5arrayIfLy3EESt6vectorIS2_SaIS2_EEEdeEv:
.LFB4425:
	pushq	%rbp
	.seh_pushreg	%rbp
	movq	%rsp, %rbp
	.seh_setframe	%rbp, 0
	.seh_endprologue
	movq	%rcx, 16(%rbp)
	movq	16(%rbp), %rax
	movq	(%rax), %rax
	popq	%rbp
	ret
	.seh_endproc
	.section	.text$_ZNSt6vectorIN2sf6VertexESaIS1_EE12emplace_backIJNS0_7Vector2IfEEEEEvDpOT_,"x"
	.linkonce discard
	.align 2
	.globl	_ZNSt6vectorIN2sf6VertexESaIS1_EE12emplace_backIJNS0_7Vector2IfEEEEEvDpOT_
	.def	_ZNSt6vectorIN2sf6VertexESaIS1_EE12emplace_backIJNS0_7Vector2IfEEEEEvDpOT_;	.scl	2;	.type	32;	.endef
	.seh_proc	_ZNSt6vectorIN2sf6VertexESaIS1_EE12emplace_backIJNS0_7Vector2IfEEEEEvDpOT_
_ZNSt6vectorIN2sf6VertexESaIS1_EE12emplace_backIJNS0_7Vector2IfEEEEEvDpOT_:
.LFB4426:
	pushq	%rbp
	.seh_pushreg	%rbp
	pushq	%rbx
	.seh_pushreg	%rbx
	subq	$40, %rsp
	.seh_stackalloc	40
	leaq	128(%rsp), %rbp
	.seh_setframe	%rbp, 128
	.seh_endprologue
	movq	%rcx, -64(%rbp)
	movq	%rdx, -56(%rbp)
	movq	-64(%rbp), %rax
	movq	8(%rax), %rdx
	movq	-64(%rbp), %rax
	movq	16(%rax), %rax
	cmpq	%rax, %rdx
	je	.L256
	movq	-56(%rbp), %rax
	movq	%rax, %rcx
	call	_ZSt7forwardIN2sf7Vector2IfEEEOT_RNSt16remove_referenceIS3_E4typeE
	movq	%rax, %rcx
	movq	-64(%rbp), %rax
	movq	8(%rax), %rdx
	movq	-64(%rbp), %rax
	movq	%rcx, %r8
	movq	%rax, %rcx
	call	_ZNSt16allocator_traitsISaIN2sf6VertexEEE9constructIS1_JNS0_7Vector2IfEEEEEvRS2_PT_DpOT0_
	movq	-64(%rbp), %rax
	movq	8(%rax), %rax
	leaq	20(%rax), %rdx
	movq	-64(%rbp), %rax
	movq	%rdx, 8(%rax)
	jmp	.L258
.L256:
	movq	-56(%rbp), %rax
	movq	%rax, %rcx
	call	_ZSt7forwardIN2sf7Vector2IfEEEOT_RNSt16remove_referenceIS3_E4typeE
	movq	%rax, %rbx
	movq	-64(%rbp), %rcx
	call	_ZNSt6vectorIN2sf6VertexESaIS1_EE3endEv
	movq	%rbx, %r8
	movq	%rax, %rdx
	movq	-64(%rbp), %rcx
	call	_ZNSt6vectorIN2sf6VertexESaIS1_EE17_M_realloc_insertIJNS0_7Vector2IfEEEEEvN9__gnu_cxx17__normal_iteratorIPS1_S3_EEDpOT_
.L258:
	nop
	addq	$40, %rsp
	popq	%rbx
	popq	%rbp
	ret
	.seh_endproc
	.section	.text$_ZNKSt6vectorISt5arrayIfLy3EESaIS1_EEixEy,"x"
	.linkonce discard
	.align 2
	.globl	_ZNKSt6vectorISt5arrayIfLy3EESaIS1_EEixEy
	.def	_ZNKSt6vectorISt5arrayIfLy3EESaIS1_EEixEy;	.scl	2;	.type	32;	.endef
	.seh_proc	_ZNKSt6vectorISt5arrayIfLy3EESaIS1_EEixEy
_ZNKSt6vectorISt5arrayIfLy3EESaIS1_EEixEy:
.LFB4427:
	pushq	%rbp
	.seh_pushreg	%rbp
	movq	%rsp, %rbp
	.seh_setframe	%rbp, 0
	.seh_endprologue
	movq	%rcx, 16(%rbp)
	movq	%rdx, 24(%rbp)
	movq	16(%rbp), %rax
	movq	(%rax), %rcx
	movq	24(%rbp), %rdx
	movq	%rdx, %rax
	addq	%rax, %rax
	addq	%rdx, %rax
	salq	$2, %rax
	addq	%rcx, %rax
	popq	%rbp
	ret
	.seh_endproc
	.section	.text$_ZNSt6vectorIN2sf6VertexESaIS1_EEixEy,"x"
	.linkonce discard
	.align 2
	.globl	_ZNSt6vectorIN2sf6VertexESaIS1_EEixEy
	.def	_ZNSt6vectorIN2sf6VertexESaIS1_EEixEy;	.scl	2;	.type	32;	.endef
	.seh_proc	_ZNSt6vectorIN2sf6VertexESaIS1_EEixEy
_ZNSt6vectorIN2sf6VertexESaIS1_EEixEy:
.LFB4428:
	pushq	%rbp
	.seh_pushreg	%rbp
	movq	%rsp, %rbp
	.seh_setframe	%rbp, 0
	.seh_endprologue
	movq	%rcx, 16(%rbp)
	movq	%rdx, 24(%rbp)
	movq	16(%rbp), %rax
	movq	(%rax), %rcx
	movq	24(%rbp), %rdx
	movq	%rdx, %rax
	salq	$2, %rax
	addq	%rdx, %rax
	salq	$2, %rax
	addq	%rcx, %rax
	popq	%rbp
	ret
	.seh_endproc
	.section	.text$_ZNKSt6vectorIN2sf6VertexESaIS1_EE4sizeEv,"x"
	.linkonce discard
	.align 2
	.globl	_ZNKSt6vectorIN2sf6VertexESaIS1_EE4sizeEv
	.def	_ZNKSt6vectorIN2sf6VertexESaIS1_EE4sizeEv;	.scl	2;	.type	32;	.endef
	.seh_proc	_ZNKSt6vectorIN2sf6VertexESaIS1_EE4sizeEv
_ZNKSt6vectorIN2sf6VertexESaIS1_EE4sizeEv:
.LFB4429:
	pushq	%rbp
	.seh_pushreg	%rbp
	movq	%rsp, %rbp
	.seh_setframe	%rbp, 0
	.seh_endprologue
	movq	%rcx, 16(%rbp)
	movq	16(%rbp), %rax
	movq	8(%rax), %rdx
	movq	16(%rbp), %rax
	movq	(%rax), %rax
	subq	%rax, %rdx
	movq	%rdx, %rax
	sarq	$2, %rax
	movq	%rax, %rdx
	movabsq	$-3689348814741910323, %rax
	imulq	%rdx, %rax
	popq	%rbp
	ret
	.seh_endproc
	.section	.text$_ZNSt6vectorIN2sf6VertexESaIS1_EEC1Ev,"x"
	.linkonce discard
	.align 2
	.globl	_ZNSt6vectorIN2sf6VertexESaIS1_EEC1Ev
	.def	_ZNSt6vectorIN2sf6VertexESaIS1_EEC1Ev;	.scl	2;	.type	32;	.endef
	.seh_proc	_ZNSt6vectorIN2sf6VertexESaIS1_EEC1Ev
_ZNSt6vectorIN2sf6VertexESaIS1_EEC1Ev:
.LFB4432:
	pushq	%rbp
	.seh_pushreg	%rbp
	movq	%rsp, %rbp
	.seh_setframe	%rbp, 0
	subq	$32, %rsp
	.seh_stackalloc	32
	.seh_endprologue
	movq	%rcx, 16(%rbp)
	movq	16(%rbp), %rax
	movq	%rax, %rcx
	call	_ZNSt12_Vector_baseIN2sf6VertexESaIS1_EEC2Ev
	nop
	addq	$32, %rsp
	popq	%rbp
	ret
	.seh_handler	__gxx_personality_seh0, @unwind, @except
	.seh_handlerdata
.LLSDA4432:
	.byte	0xff
	.byte	0xff
	.byte	0x1
	.uleb128 .LLSDACSE4432-.LLSDACSB4432
.LLSDACSB4432:
.LLSDACSE4432:
	.section	.text$_ZNSt6vectorIN2sf6VertexESaIS1_EEC1Ev,"x"
	.linkonce discard
	.seh_endproc
	.section	.text$_ZNKSt6vectorISt10shared_ptrI4EdgeESaIS2_EE4sizeEv,"x"
	.linkonce discard
	.align 2
	.globl	_ZNKSt6vectorISt10shared_ptrI4EdgeESaIS2_EE4sizeEv
	.def	_ZNKSt6vectorISt10shared_ptrI4EdgeESaIS2_EE4sizeEv;	.scl	2;	.type	32;	.endef
	.seh_proc	_ZNKSt6vectorISt10shared_ptrI4EdgeESaIS2_EE4sizeEv
_ZNKSt6vectorISt10shared_ptrI4EdgeESaIS2_EE4sizeEv:
.LFB4433:
	pushq	%rbp
	.seh_pushreg	%rbp
	movq	%rsp, %rbp
	.seh_setframe	%rbp, 0
	.seh_endprologue
	movq	%rcx, 16(%rbp)
	movq	16(%rbp), %rax
	movq	8(%rax), %rdx
	movq	16(%rbp), %rax
	movq	(%rax), %rax
	subq	%rax, %rdx
	movq	%rdx, %rax
	sarq	$4, %rax
	popq	%rbp
	ret
	.seh_endproc
	.section	.text$_ZNSt6vectorISt10shared_ptrI4EdgeESaIS2_EE5beginEv,"x"
	.linkonce discard
	.align 2
	.globl	_ZNSt6vectorISt10shared_ptrI4EdgeESaIS2_EE5beginEv
	.def	_ZNSt6vectorISt10shared_ptrI4EdgeESaIS2_EE5beginEv;	.scl	2;	.type	32;	.endef
	.seh_proc	_ZNSt6vectorISt10shared_ptrI4EdgeESaIS2_EE5beginEv
_ZNSt6vectorISt10shared_ptrI4EdgeESaIS2_EE5beginEv:
.LFB4434:
	pushq	%rbp
	.seh_pushreg	%rbp
	movq	%rsp, %rbp
	.seh_setframe	%rbp, 0
	subq	$48, %rsp
	.seh_stackalloc	48
	.seh_endprologue
	movq	%rcx, 16(%rbp)
	movq	16(%rbp), %rdx
	leaq	-8(%rbp), %rax
	movq	%rax, %rcx
	call	_ZN9__gnu_cxx17__normal_iteratorIPSt10shared_ptrI4EdgeESt6vectorIS3_SaIS3_EEEC1ERKS4_
	movq	-8(%rbp), %rax
	addq	$48, %rsp
	popq	%rbp
	ret
	.seh_endproc
	.section	.text$_ZNSt6vectorISt10shared_ptrI4EdgeESaIS2_EE3endEv,"x"
	.linkonce discard
	.align 2
	.globl	_ZNSt6vectorISt10shared_ptrI4EdgeESaIS2_EE3endEv
	.def	_ZNSt6vectorISt10shared_ptrI4EdgeESaIS2_EE3endEv;	.scl	2;	.type	32;	.endef
	.seh_proc	_ZNSt6vectorISt10shared_ptrI4EdgeESaIS2_EE3endEv
_ZNSt6vectorISt10shared_ptrI4EdgeESaIS2_EE3endEv:
.LFB4435:
	pushq	%rbp
	.seh_pushreg	%rbp
	movq	%rsp, %rbp
	.seh_setframe	%rbp, 0
	subq	$48, %rsp
	.seh_stackalloc	48
	.seh_endprologue
	movq	%rcx, 16(%rbp)
	movq	16(%rbp), %rax
	leaq	8(%rax), %rdx
	leaq	-8(%rbp), %rax
	movq	%rax, %rcx
	call	_ZN9__gnu_cxx17__normal_iteratorIPSt10shared_ptrI4EdgeESt6vectorIS3_SaIS3_EEEC1ERKS4_
	movq	-8(%rbp), %rax
	addq	$48, %rsp
	popq	%rbp
	ret
	.seh_endproc
	.section	.text$_ZN9__gnu_cxxneIPSt10shared_ptrI4EdgeESt6vectorIS3_SaIS3_EEEEbRKNS_17__normal_iteratorIT_T0_EESD_,"x"
	.linkonce discard
	.globl	_ZN9__gnu_cxxneIPSt10shared_ptrI4EdgeESt6vectorIS3_SaIS3_EEEEbRKNS_17__normal_iteratorIT_T0_EESD_
	.def	_ZN9__gnu_cxxneIPSt10shared_ptrI4EdgeESt6vectorIS3_SaIS3_EEEEbRKNS_17__normal_iteratorIT_T0_EESD_;	.scl	2;	.type	32;	.endef
	.seh_proc	_ZN9__gnu_cxxneIPSt10shared_ptrI4EdgeESt6vectorIS3_SaIS3_EEEEbRKNS_17__normal_iteratorIT_T0_EESD_
_ZN9__gnu_cxxneIPSt10shared_ptrI4EdgeESt6vectorIS3_SaIS3_EEEEbRKNS_17__normal_iteratorIT_T0_EESD_:
.LFB4436:
	pushq	%rbp
	.seh_pushreg	%rbp
	pushq	%rbx
	.seh_pushreg	%rbx
	subq	$40, %rsp
	.seh_stackalloc	40
	leaq	128(%rsp), %rbp
	.seh_setframe	%rbp, 128
	.seh_endprologue
	movq	%rcx, -64(%rbp)
	movq	%rdx, -56(%rbp)
	movq	-64(%rbp), %rcx
	call	_ZNK9__gnu_cxx17__normal_iteratorIPSt10shared_ptrI4EdgeESt6vectorIS3_SaIS3_EEE4baseEv
	movq	(%rax), %rbx
	movq	-56(%rbp), %rax
	movq	%rax, %rcx
	call	_ZNK9__gnu_cxx17__normal_iteratorIPSt10shared_ptrI4EdgeESt6vectorIS3_SaIS3_EEE4baseEv
	movq	(%rax), %rax
	cmpq	%rax, %rbx
	setne	%al
	addq	$40, %rsp
	popq	%rbx
	popq	%rbp
	ret
	.seh_endproc
	.section	.text$_ZN9__gnu_cxx17__normal_iteratorIPSt10shared_ptrI4EdgeESt6vectorIS3_SaIS3_EEEppEv,"x"
	.linkonce discard
	.align 2
	.globl	_ZN9__gnu_cxx17__normal_iteratorIPSt10shared_ptrI4EdgeESt6vectorIS3_SaIS3_EEEppEv
	.def	_ZN9__gnu_cxx17__normal_iteratorIPSt10shared_ptrI4EdgeESt6vectorIS3_SaIS3_EEEppEv;	.scl	2;	.type	32;	.endef
	.seh_proc	_ZN9__gnu_cxx17__normal_iteratorIPSt10shared_ptrI4EdgeESt6vectorIS3_SaIS3_EEEppEv
_ZN9__gnu_cxx17__normal_iteratorIPSt10shared_ptrI4EdgeESt6vectorIS3_SaIS3_EEEppEv:
.LFB4437:
	pushq	%rbp
	.seh_pushreg	%rbp
	movq	%rsp, %rbp
	.seh_setframe	%rbp, 0
	.seh_endprologue
	movq	%rcx, 16(%rbp)
	movq	16(%rbp), %rax
	movq	(%rax), %rax
	leaq	16(%rax), %rdx
	movq	16(%rbp), %rax
	movq	%rdx, (%rax)
	movq	16(%rbp), %rax
	popq	%rbp
	ret
	.seh_endproc
	.section	.text$_ZNK9__gnu_cxx17__normal_iteratorIPSt10shared_ptrI4EdgeESt6vectorIS3_SaIS3_EEEdeEv,"x"
	.linkonce discard
	.align 2
	.globl	_ZNK9__gnu_cxx17__normal_iteratorIPSt10shared_ptrI4EdgeESt6vectorIS3_SaIS3_EEEdeEv
	.def	_ZNK9__gnu_cxx17__normal_iteratorIPSt10shared_ptrI4EdgeESt6vectorIS3_SaIS3_EEEdeEv;	.scl	2;	.type	32;	.endef
	.seh_proc	_ZNK9__gnu_cxx17__normal_iteratorIPSt10shared_ptrI4EdgeESt6vectorIS3_SaIS3_EEEdeEv
_ZNK9__gnu_cxx17__normal_iteratorIPSt10shared_ptrI4EdgeESt6vectorIS3_SaIS3_EEEdeEv:
.LFB4438:
	pushq	%rbp
	.seh_pushreg	%rbp
	movq	%rsp, %rbp
	.seh_setframe	%rbp, 0
	.seh_endprologue
	movq	%rcx, 16(%rbp)
	movq	16(%rbp), %rax
	movq	(%rax), %rax
	popq	%rbp
	ret
	.seh_endproc
	.section	.text$_ZNKSt19__shared_ptr_accessI4EdgeLN9__gnu_cxx12_Lock_policyE2ELb0ELb0EEptEv,"x"
	.linkonce discard
	.align 2
	.globl	_ZNKSt19__shared_ptr_accessI4EdgeLN9__gnu_cxx12_Lock_policyE2ELb0ELb0EEptEv
	.def	_ZNKSt19__shared_ptr_accessI4EdgeLN9__gnu_cxx12_Lock_policyE2ELb0ELb0EEptEv;	.scl	2;	.type	32;	.endef
	.seh_proc	_ZNKSt19__shared_ptr_accessI4EdgeLN9__gnu_cxx12_Lock_policyE2ELb0ELb0EEptEv
_ZNKSt19__shared_ptr_accessI4EdgeLN9__gnu_cxx12_Lock_policyE2ELb0ELb0EEptEv:
.LFB4439:
	pushq	%rbp
	.seh_pushreg	%rbp
	movq	%rsp, %rbp
	.seh_setframe	%rbp, 0
	subq	$32, %rsp
	.seh_stackalloc	32
	.seh_endprologue
	movq	%rcx, 16(%rbp)
	movq	16(%rbp), %rcx
	call	_ZNKSt19__shared_ptr_accessI4EdgeLN9__gnu_cxx12_Lock_policyE2ELb0ELb0EE6_M_getEv
	addq	$32, %rsp
	popq	%rbp
	ret
	.seh_endproc
	.section	.text$_ZNSt6vectorIN2sf6VertexESaIS1_EE12emplace_backIJNS0_7Vector2IfEERKNS0_5ColorEEEEvDpOT_,"x"
	.linkonce discard
	.align 2
	.globl	_ZNSt6vectorIN2sf6VertexESaIS1_EE12emplace_backIJNS0_7Vector2IfEERKNS0_5ColorEEEEvDpOT_
	.def	_ZNSt6vectorIN2sf6VertexESaIS1_EE12emplace_backIJNS0_7Vector2IfEERKNS0_5ColorEEEEvDpOT_;	.scl	2;	.type	32;	.endef
	.seh_proc	_ZNSt6vectorIN2sf6VertexESaIS1_EE12emplace_backIJNS0_7Vector2IfEERKNS0_5ColorEEEEvDpOT_
_ZNSt6vectorIN2sf6VertexESaIS1_EE12emplace_backIJNS0_7Vector2IfEERKNS0_5ColorEEEEvDpOT_:
.LFB4440:
	pushq	%rbp
	.seh_pushreg	%rbp
	pushq	%rsi
	.seh_pushreg	%rsi
	pushq	%rbx
	.seh_pushreg	%rbx
	movq	%rsp, %rbp
	.seh_setframe	%rbp, 0
	subq	$32, %rsp
	.seh_stackalloc	32
	.seh_endprologue
	movq	%rcx, 32(%rbp)
	movq	%rdx, 40(%rbp)
	movq	%r8, 48(%rbp)
	movq	32(%rbp), %rax
	movq	8(%rax), %rdx
	movq	32(%rbp), %rax
	movq	16(%rax), %rax
	cmpq	%rax, %rdx
	je	.L281
	movq	48(%rbp), %rax
	movq	%rax, %rcx
	call	_ZSt7forwardIRKN2sf5ColorEEOT_RNSt16remove_referenceIS4_E4typeE
	movq	%rax, %rbx
	movq	40(%rbp), %rax
	movq	%rax, %rcx
	call	_ZSt7forwardIN2sf7Vector2IfEEEOT_RNSt16remove_referenceIS3_E4typeE
	movq	%rax, %rcx
	movq	32(%rbp), %rax
	movq	8(%rax), %rdx
	movq	32(%rbp), %rax
	movq	%rbx, %r9
	movq	%rcx, %r8
	movq	%rax, %rcx
	call	_ZNSt16allocator_traitsISaIN2sf6VertexEEE9constructIS1_JNS0_7Vector2IfEERKNS0_5ColorEEEEvRS2_PT_DpOT0_
	movq	32(%rbp), %rax
	movq	8(%rax), %rax
	leaq	20(%rax), %rdx
	movq	32(%rbp), %rax
	movq	%rdx, 8(%rax)
	jmp	.L283
.L281:
	movq	48(%rbp), %rax
	movq	%rax, %rcx
	call	_ZSt7forwardIRKN2sf5ColorEEOT_RNSt16remove_referenceIS4_E4typeE
	movq	%rax, %rsi
	movq	40(%rbp), %rax
	movq	%rax, %rcx
	call	_ZSt7forwardIN2sf7Vector2IfEEEOT_RNSt16remove_referenceIS3_E4typeE
	movq	%rax, %rbx
	movq	32(%rbp), %rcx
	call	_ZNSt6vectorIN2sf6VertexESaIS1_EE3endEv
	movq	%rsi, %r9
	movq	%rbx, %r8
	movq	%rax, %rdx
	movq	32(%rbp), %rcx
	call	_ZNSt6vectorIN2sf6VertexESaIS1_EE17_M_realloc_insertIJNS0_7Vector2IfEERKNS0_5ColorEEEEvN9__gnu_cxx17__normal_iteratorIPS1_S3_EEDpOT_
.L283:
	nop
	addq	$32, %rsp
	popq	%rbx
	popq	%rsi
	popq	%rbp
	ret
	.seh_endproc
	.section	.text$_ZNKSt6vectorIS_I4CellSaIS0_EESaIS2_EEixEy,"x"
	.linkonce discard
	.align 2
	.globl	_ZNKSt6vectorIS_I4CellSaIS0_EESaIS2_EEixEy
	.def	_ZNKSt6vectorIS_I4CellSaIS0_EESaIS2_EEixEy;	.scl	2;	.type	32;	.endef
	.seh_proc	_ZNKSt6vectorIS_I4CellSaIS0_EESaIS2_EEixEy
_ZNKSt6vectorIS_I4CellSaIS0_EESaIS2_EEixEy:
.LFB4441:
	pushq	%rbp
	.seh_pushreg	%rbp
	movq	%rsp, %rbp
	.seh_setframe	%rbp, 0
	.seh_endprologue
	movq	%rcx, 16(%rbp)
	movq	%rdx, 24(%rbp)
	movq	16(%rbp), %rax
	movq	(%rax), %rcx
	movq	24(%rbp), %rdx
	movq	%rdx, %rax
	addq	%rax, %rax
	addq	%rdx, %rax
	salq	$3, %rax
	addq	%rcx, %rax
	popq	%rbp
	ret
	.seh_endproc
	.section	.text$_ZNKSt6vectorI4CellSaIS0_EEixEy,"x"
	.linkonce discard
	.align 2
	.globl	_ZNKSt6vectorI4CellSaIS0_EEixEy
	.def	_ZNKSt6vectorI4CellSaIS0_EEixEy;	.scl	2;	.type	32;	.endef
	.seh_proc	_ZNKSt6vectorI4CellSaIS0_EEixEy
_ZNKSt6vectorI4CellSaIS0_EEixEy:
.LFB4442:
	pushq	%rbp
	.seh_pushreg	%rbp
	movq	%rsp, %rbp
	.seh_setframe	%rbp, 0
	.seh_endprologue
	movq	%rcx, 16(%rbp)
	movq	%rdx, 24(%rbp)
	movq	16(%rbp), %rax
	movq	(%rax), %rcx
	movq	24(%rbp), %rdx
	movq	%rdx, %rax
	salq	$3, %rax
	addq	%rdx, %rax
	salq	$3, %rax
	addq	%rcx, %rax
	popq	%rbp
	ret
	.seh_endproc
	.section	.text$_ZNSt6vectorIS_I4CellSaIS0_EESaIS2_EEixEy,"x"
	.linkonce discard
	.align 2
	.globl	_ZNSt6vectorIS_I4CellSaIS0_EESaIS2_EEixEy
	.def	_ZNSt6vectorIS_I4CellSaIS0_EESaIS2_EEixEy;	.scl	2;	.type	32;	.endef
	.seh_proc	_ZNSt6vectorIS_I4CellSaIS0_EESaIS2_EEixEy
_ZNSt6vectorIS_I4CellSaIS0_EESaIS2_EEixEy:
.LFB4443:
	pushq	%rbp
	.seh_pushreg	%rbp
	movq	%rsp, %rbp
	.seh_setframe	%rbp, 0
	.seh_endprologue
	movq	%rcx, 16(%rbp)
	movq	%rdx, 24(%rbp)
	movq	16(%rbp), %rax
	movq	(%rax), %rcx
	movq	24(%rbp), %rdx
	movq	%rdx, %rax
	addq	%rax, %rax
	addq	%rdx, %rax
	salq	$3, %rax
	addq	%rcx, %rax
	popq	%rbp
	ret
	.seh_endproc
	.section	.text$_ZNKSt6vectorI4CellSaIS0_EE4sizeEv,"x"
	.linkonce discard
	.align 2
	.globl	_ZNKSt6vectorI4CellSaIS0_EE4sizeEv
	.def	_ZNKSt6vectorI4CellSaIS0_EE4sizeEv;	.scl	2;	.type	32;	.endef
	.seh_proc	_ZNKSt6vectorI4CellSaIS0_EE4sizeEv
_ZNKSt6vectorI4CellSaIS0_EE4sizeEv:
.LFB4444:
	pushq	%rbp
	.seh_pushreg	%rbp
	movq	%rsp, %rbp
	.seh_setframe	%rbp, 0
	.seh_endprologue
	movq	%rcx, 16(%rbp)
	movq	16(%rbp), %rax
	movq	8(%rax), %rdx
	movq	16(%rbp), %rax
	movq	(%rax), %rax
	subq	%rax, %rdx
	movq	%rdx, %rax
	sarq	$3, %rax
	movq	%rax, %rdx
	movabsq	$-8198552921648689607, %rax
	imulq	%rdx, %rax
	popq	%rbp
	ret
	.seh_endproc
	.section	.text$_ZNKSt6vectorIS_I4CellSaIS0_EESaIS2_EE4sizeEv,"x"
	.linkonce discard
	.align 2
	.globl	_ZNKSt6vectorIS_I4CellSaIS0_EESaIS2_EE4sizeEv
	.def	_ZNKSt6vectorIS_I4CellSaIS0_EESaIS2_EE4sizeEv;	.scl	2;	.type	32;	.endef
	.seh_proc	_ZNKSt6vectorIS_I4CellSaIS0_EESaIS2_EE4sizeEv
_ZNKSt6vectorIS_I4CellSaIS0_EESaIS2_EE4sizeEv:
.LFB4445:
	pushq	%rbp
	.seh_pushreg	%rbp
	movq	%rsp, %rbp
	.seh_setframe	%rbp, 0
	.seh_endprologue
	movq	%rcx, 16(%rbp)
	movq	16(%rbp), %rax
	movq	8(%rax), %rdx
	movq	16(%rbp), %rax
	movq	(%rax), %rax
	subq	%rax, %rdx
	movq	%rdx, %rax
	sarq	$3, %rax
	movq	%rax, %rdx
	movabsq	$-6148914691236517205, %rax
	imulq	%rdx, %rax
	popq	%rbp
	ret
	.seh_endproc
	.section	.text$_ZNSt6vectorIP4CellSaIS1_EEC1Ev,"x"
	.linkonce discard
	.align 2
	.globl	_ZNSt6vectorIP4CellSaIS1_EEC1Ev
	.def	_ZNSt6vectorIP4CellSaIS1_EEC1Ev;	.scl	2;	.type	32;	.endef
	.seh_proc	_ZNSt6vectorIP4CellSaIS1_EEC1Ev
_ZNSt6vectorIP4CellSaIS1_EEC1Ev:
.LFB4448:
	pushq	%rbp
	.seh_pushreg	%rbp
	movq	%rsp, %rbp
	.seh_setframe	%rbp, 0
	subq	$32, %rsp
	.seh_stackalloc	32
	.seh_endprologue
	movq	%rcx, 16(%rbp)
	movq	16(%rbp), %rax
	movq	%rax, %rcx
	call	_ZNSt12_Vector_baseIP4CellSaIS1_EEC2Ev
	nop
	addq	$32, %rsp
	popq	%rbp
	ret
	.seh_handler	__gxx_personality_seh0, @unwind, @except
	.seh_handlerdata
.LLSDA4448:
	.byte	0xff
	.byte	0xff
	.byte	0x1
	.uleb128 .LLSDACSE4448-.LLSDACSB4448
.LLSDACSB4448:
.LLSDACSE4448:
	.section	.text$_ZNSt6vectorIP4CellSaIS1_EEC1Ev,"x"
	.linkonce discard
	.seh_endproc
	.section	.text$_ZNSt6vectorIP4CellSaIS1_EED1Ev,"x"
	.linkonce discard
	.align 2
	.globl	_ZNSt6vectorIP4CellSaIS1_EED1Ev
	.def	_ZNSt6vectorIP4CellSaIS1_EED1Ev;	.scl	2;	.type	32;	.endef
	.seh_proc	_ZNSt6vectorIP4CellSaIS1_EED1Ev
_ZNSt6vectorIP4CellSaIS1_EED1Ev:
.LFB4451:
	pushq	%rbp
	.seh_pushreg	%rbp
	movq	%rsp, %rbp
	.seh_setframe	%rbp, 0
	subq	$32, %rsp
	.seh_stackalloc	32
	.seh_endprologue
	movq	%rcx, 16(%rbp)
	movq	16(%rbp), %rax
	movq	%rax, %rcx
	call	_ZNSt12_Vector_baseIP4CellSaIS1_EE19_M_get_Tp_allocatorEv
	movq	%rax, %rcx
	movq	16(%rbp), %rax
	movq	8(%rax), %rdx
	movq	16(%rbp), %rax
	movq	(%rax), %rax
	movq	%rcx, %r8
	movq	%rax, %rcx
	call	_ZSt8_DestroyIPP4CellS1_EvT_S3_RSaIT0_E
	movq	16(%rbp), %rax
	movq	%rax, %rcx
	call	_ZNSt12_Vector_baseIP4CellSaIS1_EED2Ev
	nop
	addq	$32, %rsp
	popq	%rbp
	ret
	.seh_handler	__gxx_personality_seh0, @unwind, @except
	.seh_handlerdata
.LLSDA4451:
	.byte	0xff
	.byte	0xff
	.byte	0x1
	.uleb128 .LLSDACSE4451-.LLSDACSB4451
.LLSDACSB4451:
.LLSDACSE4451:
	.section	.text$_ZNSt6vectorIP4CellSaIS1_EED1Ev,"x"
	.linkonce discard
	.seh_endproc
	.section	.text$_ZNSt6vectorIP4CellSaIS1_EE7reserveEy,"x"
	.linkonce discard
	.align 2
	.globl	_ZNSt6vectorIP4CellSaIS1_EE7reserveEy
	.def	_ZNSt6vectorIP4CellSaIS1_EE7reserveEy;	.scl	2;	.type	32;	.endef
	.seh_proc	_ZNSt6vectorIP4CellSaIS1_EE7reserveEy
_ZNSt6vectorIP4CellSaIS1_EE7reserveEy:
.LFB4452:
	pushq	%rbp
	.seh_pushreg	%rbp
	pushq	%rbx
	.seh_pushreg	%rbx
	subq	$56, %rsp
	.seh_stackalloc	56
	leaq	128(%rsp), %rbp
	.seh_setframe	%rbp, 128
	.seh_endprologue
	movq	%rcx, -48(%rbp)
	movq	%rdx, -40(%rbp)
	movq	-48(%rbp), %rcx
	call	_ZNKSt6vectorIP4CellSaIS1_EE8max_sizeEv
	cmpq	%rax, -40(%rbp)
	seta	%al
	testb	%al, %al
	je	.L297
	leaq	.LC13(%rip), %rcx
	call	_ZSt20__throw_length_errorPKc
.L297:
	movq	-48(%rbp), %rcx
	call	_ZNKSt6vectorIP4CellSaIS1_EE8capacityEv
	cmpq	%rax, -40(%rbp)
	seta	%al
	testb	%al, %al
	je	.L299
	movq	-48(%rbp), %rcx
	call	_ZNKSt6vectorIP4CellSaIS1_EE4sizeEv
	movq	%rax, -88(%rbp)
	movq	-48(%rbp), %rax
	movq	8(%rax), %rax
	movq	%rax, %rcx
	call	_ZSt32__make_move_if_noexcept_iteratorIP4CellSt13move_iteratorIPS1_EET0_PT_
	movq	%rax, %rbx
	movq	-48(%rbp), %rax
	movq	(%rax), %rax
	movq	%rax, %rcx
	call	_ZSt32__make_move_if_noexcept_iteratorIP4CellSt13move_iteratorIPS1_EET0_PT_
	movq	%rax, %rdx
	movq	-40(%rbp), %rax
	movq	%rbx, %r9
	movq	%rdx, %r8
	movq	%rax, %rdx
	movq	-48(%rbp), %rcx
	call	_ZNSt6vectorIP4CellSaIS1_EE20_M_allocate_and_copyISt13move_iteratorIPS1_EEES6_yT_S8_
	movq	%rax, -96(%rbp)
	movq	-48(%rbp), %rax
	movq	%rax, %rcx
	call	_ZNSt12_Vector_baseIP4CellSaIS1_EE19_M_get_Tp_allocatorEv
	movq	%rax, %rcx
	movq	-48(%rbp), %rax
	movq	8(%rax), %rdx
	movq	-48(%rbp), %rax
	movq	(%rax), %rax
	movq	%rcx, %r8
	movq	%rax, %rcx
	call	_ZSt8_DestroyIPP4CellS1_EvT_S3_RSaIT0_E
	movq	-48(%rbp), %rax
	movq	-48(%rbp), %rdx
	movq	16(%rdx), %rcx
	movq	-48(%rbp), %rdx
	movq	(%rdx), %rdx
	subq	%rdx, %rcx
	movq	%rcx, %rdx
	sarq	$3, %rdx
	movq	%rdx, %rcx
	movq	-48(%rbp), %rdx
	movq	(%rdx), %rdx
	movq	%rcx, %r8
	movq	%rax, %rcx
	call	_ZNSt12_Vector_baseIP4CellSaIS1_EE13_M_deallocateEPS1_y
	movq	-48(%rbp), %rax
	movq	-96(%rbp), %rdx
	movq	%rdx, (%rax)
	movq	-88(%rbp), %rax
	leaq	0(,%rax,8), %rdx
	movq	-96(%rbp), %rax
	addq	%rax, %rdx
	movq	-48(%rbp), %rax
	movq	%rdx, 8(%rax)
	movq	-48(%rbp), %rax
	movq	(%rax), %rdx
	movq	-40(%rbp), %rax
	salq	$3, %rax
	addq	%rax, %rdx
	movq	-48(%rbp), %rax
	movq	%rdx, 16(%rax)
.L299:
	nop
	addq	$56, %rsp
	popq	%rbx
	popq	%rbp
	ret
	.seh_endproc
	.section	.text$_ZNSt5arrayIS_IiLy2EELy4EE5beginEv,"x"
	.linkonce discard
	.align 2
	.globl	_ZNSt5arrayIS_IiLy2EELy4EE5beginEv
	.def	_ZNSt5arrayIS_IiLy2EELy4EE5beginEv;	.scl	2;	.type	32;	.endef
	.seh_proc	_ZNSt5arrayIS_IiLy2EELy4EE5beginEv
_ZNSt5arrayIS_IiLy2EELy4EE5beginEv:
.LFB4453:
	pushq	%rbp
	.seh_pushreg	%rbp
	movq	%rsp, %rbp
	.seh_setframe	%rbp, 0
	subq	$32, %rsp
	.seh_stackalloc	32
	.seh_endprologue
	movq	%rcx, 16(%rbp)
	movq	16(%rbp), %rcx
	call	_ZNSt5arrayIS_IiLy2EELy4EE4dataEv
	addq	$32, %rsp
	popq	%rbp
	ret
	.seh_endproc
	.section	.text$_ZNSt5arrayIS_IiLy2EELy4EE3endEv,"x"
	.linkonce discard
	.align 2
	.globl	_ZNSt5arrayIS_IiLy2EELy4EE3endEv
	.def	_ZNSt5arrayIS_IiLy2EELy4EE3endEv;	.scl	2;	.type	32;	.endef
	.seh_proc	_ZNSt5arrayIS_IiLy2EELy4EE3endEv
_ZNSt5arrayIS_IiLy2EELy4EE3endEv:
.LFB4454:
	pushq	%rbp
	.seh_pushreg	%rbp
	movq	%rsp, %rbp
	.seh_setframe	%rbp, 0
	subq	$32, %rsp
	.seh_stackalloc	32
	.seh_endprologue
	movq	%rcx, 16(%rbp)
	movq	16(%rbp), %rcx
	call	_ZNSt5arrayIS_IiLy2EELy4EE4dataEv
	addq	$32, %rax
	addq	$32, %rsp
	popq	%rbp
	ret
	.seh_endproc
	.section	.text$_ZNSt6vectorI4CellSaIS0_EEixEy,"x"
	.linkonce discard
	.align 2
	.globl	_ZNSt6vectorI4CellSaIS0_EEixEy
	.def	_ZNSt6vectorI4CellSaIS0_EEixEy;	.scl	2;	.type	32;	.endef
	.seh_proc	_ZNSt6vectorI4CellSaIS0_EEixEy
_ZNSt6vectorI4CellSaIS0_EEixEy:
.LFB4455:
	pushq	%rbp
	.seh_pushreg	%rbp
	movq	%rsp, %rbp
	.seh_setframe	%rbp, 0
	.seh_endprologue
	movq	%rcx, 16(%rbp)
	movq	%rdx, 24(%rbp)
	movq	16(%rbp), %rax
	movq	(%rax), %rcx
	movq	24(%rbp), %rdx
	movq	%rdx, %rax
	salq	$3, %rax
	addq	%rdx, %rax
	salq	$3, %rax
	addq	%rcx, %rax
	popq	%rbp
	ret
	.seh_endproc
	.section	.text$_ZNSt6vectorIP4CellSaIS1_EE9push_backEOS1_,"x"
	.linkonce discard
	.align 2
	.globl	_ZNSt6vectorIP4CellSaIS1_EE9push_backEOS1_
	.def	_ZNSt6vectorIP4CellSaIS1_EE9push_backEOS1_;	.scl	2;	.type	32;	.endef
	.seh_proc	_ZNSt6vectorIP4CellSaIS1_EE9push_backEOS1_
_ZNSt6vectorIP4CellSaIS1_EE9push_backEOS1_:
.LFB4456:
	pushq	%rbp
	.seh_pushreg	%rbp
	movq	%rsp, %rbp
	.seh_setframe	%rbp, 0
	subq	$32, %rsp
	.seh_stackalloc	32
	.seh_endprologue
	movq	%rcx, 16(%rbp)
	movq	%rdx, 24(%rbp)
	movq	24(%rbp), %rax
	movq	%rax, %rcx
	call	_ZSt4moveIRP4CellEONSt16remove_referenceIT_E4typeEOS4_
	movq	%rax, %rdx
	movq	16(%rbp), %rcx
	call	_ZNSt6vectorIP4CellSaIS1_EE12emplace_backIJS1_EEEvDpOT_
	nop
	addq	$32, %rsp
	popq	%rbp
	ret
	.seh_endproc
	.section	.text$_ZNSt6vectorIS_I4CellSaIS0_EESaIS2_EEC1ERKS4_,"x"
	.linkonce discard
	.align 2
	.globl	_ZNSt6vectorIS_I4CellSaIS0_EESaIS2_EEC1ERKS4_
	.def	_ZNSt6vectorIS_I4CellSaIS0_EESaIS2_EEC1ERKS4_;	.scl	2;	.type	32;	.endef
	.seh_proc	_ZNSt6vectorIS_I4CellSaIS0_EESaIS2_EEC1ERKS4_
_ZNSt6vectorIS_I4CellSaIS0_EESaIS2_EEC1ERKS4_:
.LFB4462:
	pushq	%rbp
	.seh_pushreg	%rbp
	pushq	%rdi
	.seh_pushreg	%rdi
	pushq	%rsi
	.seh_pushreg	%rsi
	pushq	%rbx
	.seh_pushreg	%rbx
	subq	$56, %rsp
	.seh_stackalloc	56
	leaq	128(%rsp), %rbp
	.seh_setframe	%rbp, 128
	.seh_endprologue
	movq	%rcx, -32(%rbp)
	movq	%rdx, -24(%rbp)
	movq	-32(%rbp), %rbx
	movq	-24(%rbp), %rax
	movq	%rax, %rcx
	call	_ZNKSt12_Vector_baseISt6vectorI4CellSaIS1_EESaIS3_EE19_M_get_Tp_allocatorEv
	movq	%rax, %rdx
	leaq	-81(%rbp), %rax
	movq	%rax, %rcx
.LEHB41:
	call	_ZN9__gnu_cxx14__alloc_traitsISaISt6vectorI4CellSaIS2_EEES4_E17_S_select_on_copyERKS5_
.LEHE41:
	movq	-24(%rbp), %rax
	movq	%rax, %rcx
	call	_ZNKSt6vectorIS_I4CellSaIS0_EESaIS2_EE4sizeEv
	movq	%rax, %rdx
	leaq	-81(%rbp), %rax
	movq	%rax, %r8
	movq	%rbx, %rcx
.LEHB42:
	call	_ZNSt12_Vector_baseISt6vectorI4CellSaIS1_EESaIS3_EEC2EyRKS4_
.LEHE42:
	leaq	-81(%rbp), %rax
	movq	%rax, %rcx
	call	_ZNSaISt6vectorI4CellSaIS0_EEED1Ev
	movq	-32(%rbp), %rax
	movq	%rax, %rcx
	call	_ZNSt12_Vector_baseISt6vectorI4CellSaIS1_EESaIS3_EE19_M_get_Tp_allocatorEv
	movq	%rax, %rdi
	movq	-32(%rbp), %rax
	movq	(%rax), %rbx
	movq	-24(%rbp), %rax
	movq	%rax, %rcx
	call	_ZNKSt6vectorIS_I4CellSaIS0_EESaIS2_EE3endEv
	movq	%rax, %rsi
	movq	-24(%rbp), %rax
	movq	%rax, %rcx
	call	_ZNKSt6vectorIS_I4CellSaIS0_EESaIS2_EE5beginEv
	movq	%rdi, %r9
	movq	%rbx, %r8
	movq	%rsi, %rdx
	movq	%rax, %rcx
.LEHB43:
	call	_ZSt22__uninitialized_copy_aIN9__gnu_cxx17__normal_iteratorIPKSt6vectorI4CellSaIS3_EES2_IS5_SaIS5_EEEEPS5_S5_ET0_T_SD_SC_RSaIT1_E
.LEHE43:
	movq	%rax, %rdx
	movq	-32(%rbp), %rax
	movq	%rdx, 8(%rax)
	jmp	.L312
.L310:
	movq	%rax, %rbx
	leaq	-81(%rbp), %rax
	movq	%rax, %rcx
	call	_ZNSaISt6vectorI4CellSaIS0_EEED1Ev
	movq	%rbx, %rax
	movq	%rax, %rcx
.LEHB44:
	call	_Unwind_Resume
.L311:
	movq	%rax, %rbx
	movq	-32(%rbp), %rax
	movq	%rax, %rcx
	call	_ZNSt12_Vector_baseISt6vectorI4CellSaIS1_EESaIS3_EED2Ev
	movq	%rbx, %rax
	movq	%rax, %rcx
	call	_Unwind_Resume
	nop
.LEHE44:
.L312:
	addq	$56, %rsp
	popq	%rbx
	popq	%rsi
	popq	%rdi
	popq	%rbp
	ret
	.seh_handler	__gxx_personality_seh0, @unwind, @except
	.seh_handlerdata
.LLSDA4462:
	.byte	0xff
	.byte	0xff
	.byte	0x1
	.uleb128 .LLSDACSE4462-.LLSDACSB4462
.LLSDACSB4462:
	.uleb128 .LEHB41-.LFB4462
	.uleb128 .LEHE41-.LEHB41
	.uleb128 0
	.uleb128 0
	.uleb128 .LEHB42-.LFB4462
	.uleb128 .LEHE42-.LEHB42
	.uleb128 .L310-.LFB4462
	.uleb128 0
	.uleb128 .LEHB43-.LFB4462
	.uleb128 .LEHE43-.LEHB43
	.uleb128 .L311-.LFB4462
	.uleb128 0
	.uleb128 .LEHB44-.LFB4462
	.uleb128 .LEHE44-.LEHB44
	.uleb128 0
	.uleb128 0
.LLSDACSE4462:
	.section	.text$_ZNSt6vectorIS_I4CellSaIS0_EESaIS2_EEC1ERKS4_,"x"
	.linkonce discard
	.seh_endproc
	.section	.text$_ZNSt6vectorIS_I4CellSaIS0_EESaIS2_EED1Ev,"x"
	.linkonce discard
	.align 2
	.globl	_ZNSt6vectorIS_I4CellSaIS0_EESaIS2_EED1Ev
	.def	_ZNSt6vectorIS_I4CellSaIS0_EESaIS2_EED1Ev;	.scl	2;	.type	32;	.endef
	.seh_proc	_ZNSt6vectorIS_I4CellSaIS0_EESaIS2_EED1Ev
_ZNSt6vectorIS_I4CellSaIS0_EESaIS2_EED1Ev:
.LFB4465:
	pushq	%rbp
	.seh_pushreg	%rbp
	movq	%rsp, %rbp
	.seh_setframe	%rbp, 0
	subq	$32, %rsp
	.seh_stackalloc	32
	.seh_endprologue
	movq	%rcx, 16(%rbp)
	movq	16(%rbp), %rax
	movq	%rax, %rcx
	call	_ZNSt12_Vector_baseISt6vectorI4CellSaIS1_EESaIS3_EE19_M_get_Tp_allocatorEv
	movq	%rax, %rcx
	movq	16(%rbp), %rax
	movq	8(%rax), %rdx
	movq	16(%rbp), %rax
	movq	(%rax), %rax
	movq	%rcx, %r8
	movq	%rax, %rcx
	call	_ZSt8_DestroyIPSt6vectorI4CellSaIS1_EES3_EvT_S5_RSaIT0_E
	movq	16(%rbp), %rax
	movq	%rax, %rcx
	call	_ZNSt12_Vector_baseISt6vectorI4CellSaIS1_EESaIS3_EED2Ev
	nop
	addq	$32, %rsp
	popq	%rbp
	ret
	.seh_handler	__gxx_personality_seh0, @unwind, @except
	.seh_handlerdata
.LLSDA4465:
	.byte	0xff
	.byte	0xff
	.byte	0x1
	.uleb128 .LLSDACSE4465-.LLSDACSB4465
.LLSDACSB4465:
.LLSDACSE4465:
	.section	.text$_ZNSt6vectorIS_I4CellSaIS0_EESaIS2_EED1Ev,"x"
	.linkonce discard
	.seh_endproc
	.section	.text$_ZNSt6vectorISt10shared_ptrI4EdgeESaIS2_EEC1Ev,"x"
	.linkonce discard
	.align 2
	.globl	_ZNSt6vectorISt10shared_ptrI4EdgeESaIS2_EEC1Ev
	.def	_ZNSt6vectorISt10shared_ptrI4EdgeESaIS2_EEC1Ev;	.scl	2;	.type	32;	.endef
	.seh_proc	_ZNSt6vectorISt10shared_ptrI4EdgeESaIS2_EEC1Ev
_ZNSt6vectorISt10shared_ptrI4EdgeESaIS2_EEC1Ev:
.LFB4468:
	pushq	%rbp
	.seh_pushreg	%rbp
	movq	%rsp, %rbp
	.seh_setframe	%rbp, 0
	subq	$32, %rsp
	.seh_stackalloc	32
	.seh_endprologue
	movq	%rcx, 16(%rbp)
	movq	16(%rbp), %rax
	movq	%rax, %rcx
	call	_ZNSt12_Vector_baseISt10shared_ptrI4EdgeESaIS2_EEC2Ev
	nop
	addq	$32, %rsp
	popq	%rbp
	ret
	.seh_handler	__gxx_personality_seh0, @unwind, @except
	.seh_handlerdata
.LLSDA4468:
	.byte	0xff
	.byte	0xff
	.byte	0x1
	.uleb128 .LLSDACSE4468-.LLSDACSB4468
.LLSDACSB4468:
.LLSDACSE4468:
	.section	.text$_ZNSt6vectorISt10shared_ptrI4EdgeESaIS2_EEC1Ev,"x"
	.linkonce discard
	.seh_endproc
	.section	.text$_ZNSt6vectorISt10shared_ptrI4EdgeESaIS2_EED1Ev,"x"
	.linkonce discard
	.align 2
	.globl	_ZNSt6vectorISt10shared_ptrI4EdgeESaIS2_EED1Ev
	.def	_ZNSt6vectorISt10shared_ptrI4EdgeESaIS2_EED1Ev;	.scl	2;	.type	32;	.endef
	.seh_proc	_ZNSt6vectorISt10shared_ptrI4EdgeESaIS2_EED1Ev
_ZNSt6vectorISt10shared_ptrI4EdgeESaIS2_EED1Ev:
.LFB4471:
	pushq	%rbp
	.seh_pushreg	%rbp
	movq	%rsp, %rbp
	.seh_setframe	%rbp, 0
	subq	$32, %rsp
	.seh_stackalloc	32
	.seh_endprologue
	movq	%rcx, 16(%rbp)
	movq	16(%rbp), %rax
	movq	%rax, %rcx
	call	_ZNSt12_Vector_baseISt10shared_ptrI4EdgeESaIS2_EE19_M_get_Tp_allocatorEv
	movq	%rax, %rcx
	movq	16(%rbp), %rax
	movq	8(%rax), %rdx
	movq	16(%rbp), %rax
	movq	(%rax), %rax
	movq	%rcx, %r8
	movq	%rax, %rcx
	call	_ZSt8_DestroyIPSt10shared_ptrI4EdgeES2_EvT_S4_RSaIT0_E
	movq	16(%rbp), %rax
	movq	%rax, %rcx
	call	_ZNSt12_Vector_baseISt10shared_ptrI4EdgeESaIS2_EED2Ev
	nop
	addq	$32, %rsp
	popq	%rbp
	ret
	.seh_handler	__gxx_personality_seh0, @unwind, @except
	.seh_handlerdata
.LLSDA4471:
	.byte	0xff
	.byte	0xff
	.byte	0x1
	.uleb128 .LLSDACSE4471-.LLSDACSB4471
.LLSDACSB4471:
.LLSDACSE4471:
	.section	.text$_ZNSt6vectorISt10shared_ptrI4EdgeESaIS2_EED1Ev,"x"
	.linkonce discard
	.seh_endproc
	.section	.text$_ZNSt6vectorISt10shared_ptrI4EdgeESaIS2_EE5clearEv,"x"
	.linkonce discard
	.align 2
	.globl	_ZNSt6vectorISt10shared_ptrI4EdgeESaIS2_EE5clearEv
	.def	_ZNSt6vectorISt10shared_ptrI4EdgeESaIS2_EE5clearEv;	.scl	2;	.type	32;	.endef
	.seh_proc	_ZNSt6vectorISt10shared_ptrI4EdgeESaIS2_EE5clearEv
_ZNSt6vectorISt10shared_ptrI4EdgeESaIS2_EE5clearEv:
.LFB4472:
	pushq	%rbp
	.seh_pushreg	%rbp
	movq	%rsp, %rbp
	.seh_setframe	%rbp, 0
	subq	$32, %rsp
	.seh_stackalloc	32
	.seh_endprologue
	movq	%rcx, 16(%rbp)
	movq	16(%rbp), %rax
	movq	(%rax), %rax
	movq	%rax, %rdx
	movq	16(%rbp), %rcx
	call	_ZNSt6vectorISt10shared_ptrI4EdgeESaIS2_EE15_M_erase_at_endEPS2_
	nop
	addq	$32, %rsp
	popq	%rbp
	ret
	.seh_endproc
	.section	.text$_ZNKSt6vectorIP4CellSaIS1_EE4sizeEv,"x"
	.linkonce discard
	.align 2
	.globl	_ZNKSt6vectorIP4CellSaIS1_EE4sizeEv
	.def	_ZNKSt6vectorIP4CellSaIS1_EE4sizeEv;	.scl	2;	.type	32;	.endef
	.seh_proc	_ZNKSt6vectorIP4CellSaIS1_EE4sizeEv
_ZNKSt6vectorIP4CellSaIS1_EE4sizeEv:
.LFB4473:
	pushq	%rbp
	.seh_pushreg	%rbp
	movq	%rsp, %rbp
	.seh_setframe	%rbp, 0
	.seh_endprologue
	movq	%rcx, 16(%rbp)
	movq	16(%rbp), %rax
	movq	8(%rax), %rdx
	movq	16(%rbp), %rax
	movq	(%rax), %rax
	subq	%rax, %rdx
	movq	%rdx, %rax
	sarq	$3, %rax
	popq	%rbp
	ret
	.seh_endproc
	.section	.text$_ZNSt6vectorIP4CellSaIS1_EEixEy,"x"
	.linkonce discard
	.align 2
	.globl	_ZNSt6vectorIP4CellSaIS1_EEixEy
	.def	_ZNSt6vectorIP4CellSaIS1_EEixEy;	.scl	2;	.type	32;	.endef
	.seh_proc	_ZNSt6vectorIP4CellSaIS1_EEixEy
_ZNSt6vectorIP4CellSaIS1_EEixEy:
.LFB4474:
	pushq	%rbp
	.seh_pushreg	%rbp
	movq	%rsp, %rbp
	.seh_setframe	%rbp, 0
	.seh_endprologue
	movq	%rcx, 16(%rbp)
	movq	%rdx, 24(%rbp)
	movq	16(%rbp), %rax
	movq	(%rax), %rdx
	movq	24(%rbp), %rax
	salq	$3, %rax
	addq	%rdx, %rax
	popq	%rbp
	ret
	.seh_endproc
	.section	.text$_ZNSt5arrayIbLy4EEixEy,"x"
	.linkonce discard
	.align 2
	.globl	_ZNSt5arrayIbLy4EEixEy
	.def	_ZNSt5arrayIbLy4EEixEy;	.scl	2;	.type	32;	.endef
	.seh_proc	_ZNSt5arrayIbLy4EEixEy
_ZNSt5arrayIbLy4EEixEy:
.LFB4475:
	pushq	%rbp
	.seh_pushreg	%rbp
	movq	%rsp, %rbp
	.seh_setframe	%rbp, 0
	subq	$32, %rsp
	.seh_stackalloc	32
	.seh_endprologue
	movq	%rcx, 16(%rbp)
	movq	%rdx, 24(%rbp)
	movq	16(%rbp), %rax
	movq	24(%rbp), %rdx
	movq	%rax, %rcx
	call	_ZNSt14__array_traitsIbLy4EE6_S_refERA4_Kby
	addq	$32, %rsp
	popq	%rbp
	ret
	.seh_endproc
	.section	.text$_ZNSt5arrayISt10shared_ptrI4EdgeELy4EEixEy,"x"
	.linkonce discard
	.align 2
	.globl	_ZNSt5arrayISt10shared_ptrI4EdgeELy4EEixEy
	.def	_ZNSt5arrayISt10shared_ptrI4EdgeELy4EEixEy;	.scl	2;	.type	32;	.endef
	.seh_proc	_ZNSt5arrayISt10shared_ptrI4EdgeELy4EEixEy
_ZNSt5arrayISt10shared_ptrI4EdgeELy4EEixEy:
.LFB4476:
	pushq	%rbp
	.seh_pushreg	%rbp
	movq	%rsp, %rbp
	.seh_setframe	%rbp, 0
	subq	$32, %rsp
	.seh_stackalloc	32
	.seh_endprologue
	movq	%rcx, 16(%rbp)
	movq	%rdx, 24(%rbp)
	movq	16(%rbp), %rax
	movq	24(%rbp), %rdx
	movq	%rax, %rcx
	call	_ZNSt14__array_traitsISt10shared_ptrI4EdgeELy4EE6_S_refERA4_KS2_y
	addq	$32, %rsp
	popq	%rbp
	ret
	.seh_endproc
	.section	.text$_ZNSt14__shared_countILN9__gnu_cxx12_Lock_policyE2EEC1ERKS2_,"x"
	.linkonce discard
	.align 2
	.globl	_ZNSt14__shared_countILN9__gnu_cxx12_Lock_policyE2EEC1ERKS2_
	.def	_ZNSt14__shared_countILN9__gnu_cxx12_Lock_policyE2EEC1ERKS2_;	.scl	2;	.type	32;	.endef
	.seh_proc	_ZNSt14__shared_countILN9__gnu_cxx12_Lock_policyE2EEC1ERKS2_
_ZNSt14__shared_countILN9__gnu_cxx12_Lock_policyE2EEC1ERKS2_:
.LFB4479:
	pushq	%rbp
	.seh_pushreg	%rbp
	movq	%rsp, %rbp
	.seh_setframe	%rbp, 0
	subq	$32, %rsp
	.seh_stackalloc	32
	.seh_endprologue
	movq	%rcx, 16(%rbp)
	movq	%rdx, 24(%rbp)
	movq	24(%rbp), %rax
	movq	(%rax), %rdx
	movq	16(%rbp), %rax
	movq	%rdx, (%rax)
	movq	16(%rbp), %rax
	movq	(%rax), %rax
	testq	%rax, %rax
	je	.L327
	movq	16(%rbp), %rax
	movq	(%rax), %rax
	movq	%rax, %rcx
	call	_ZNSt16_Sp_counted_baseILN9__gnu_cxx12_Lock_policyE2EE15_M_add_ref_copyEv
.L327:
	nop
	addq	$32, %rsp
	popq	%rbp
	ret
	.seh_endproc
	.section	.text$_ZNSt14__shared_countILN9__gnu_cxx12_Lock_policyE2EEaSERKS2_,"x"
	.linkonce discard
	.align 2
	.globl	_ZNSt14__shared_countILN9__gnu_cxx12_Lock_policyE2EEaSERKS2_
	.def	_ZNSt14__shared_countILN9__gnu_cxx12_Lock_policyE2EEaSERKS2_;	.scl	2;	.type	32;	.endef
	.seh_proc	_ZNSt14__shared_countILN9__gnu_cxx12_Lock_policyE2EEaSERKS2_
_ZNSt14__shared_countILN9__gnu_cxx12_Lock_policyE2EEaSERKS2_:
.LFB4480:
	pushq	%rbp
	.seh_pushreg	%rbp
	movq	%rsp, %rbp
	.seh_setframe	%rbp, 0
	subq	$48, %rsp
	.seh_stackalloc	48
	.seh_endprologue
	movq	%rcx, 16(%rbp)
	movq	%rdx, 24(%rbp)
	movq	24(%rbp), %rax
	movq	(%rax), %rax
	movq	%rax, -8(%rbp)
	movq	16(%rbp), %rax
	movq	(%rax), %rax
	cmpq	%rax, -8(%rbp)
	je	.L329
	cmpq	$0, -8(%rbp)
	je	.L330
	movq	-8(%rbp), %rax
	movq	%rax, %rcx
	call	_ZNSt16_Sp_counted_baseILN9__gnu_cxx12_Lock_policyE2EE15_M_add_ref_copyEv
.L330:
	movq	16(%rbp), %rax
	movq	(%rax), %rax
	testq	%rax, %rax
	je	.L331
	movq	16(%rbp), %rax
	movq	(%rax), %rax
	movq	%rax, %rcx
	call	_ZNSt16_Sp_counted_baseILN9__gnu_cxx12_Lock_policyE2EE10_M_releaseEv
.L331:
	movq	16(%rbp), %rax
	movq	-8(%rbp), %rdx
	movq	%rdx, (%rax)
.L329:
	movq	16(%rbp), %rax
	addq	$48, %rsp
	popq	%rbp
	ret
	.seh_endproc
	.section	.text$_ZSt11make_sharedI4EdgeJiiiiEESt10shared_ptrIT_EDpOT0_,"x"
	.linkonce discard
	.globl	_ZSt11make_sharedI4EdgeJiiiiEESt10shared_ptrIT_EDpOT0_
	.def	_ZSt11make_sharedI4EdgeJiiiiEESt10shared_ptrIT_EDpOT0_;	.scl	2;	.type	32;	.endef
	.seh_proc	_ZSt11make_sharedI4EdgeJiiiiEESt10shared_ptrIT_EDpOT0_
_ZSt11make_sharedI4EdgeJiiiiEESt10shared_ptrIT_EDpOT0_:
.LFB4481:
	pushq	%rbp
	.seh_pushreg	%rbp
	pushq	%r12
	.seh_pushreg	%r12
	pushq	%rdi
	.seh_pushreg	%rdi
	pushq	%rsi
	.seh_pushreg	%rsi
	pushq	%rbx
	.seh_pushreg	%rbx
	movq	%rsp, %rbp
	.seh_setframe	%rbp, 0
	subq	$64, %rsp
	.seh_stackalloc	64
	.seh_endprologue
	movq	%rcx, 48(%rbp)
	movq	%rdx, 56(%rbp)
	movq	%r8, 64(%rbp)
	movq	%r9, 72(%rbp)
	movq	80(%rbp), %rax
	movq	%rax, %rcx
	call	_ZSt7forwardIiEOT_RNSt16remove_referenceIS0_E4typeE
	movq	%rax, %rsi
	movq	72(%rbp), %rax
	movq	%rax, %rcx
	call	_ZSt7forwardIiEOT_RNSt16remove_referenceIS0_E4typeE
	movq	%rax, %rbx
	movq	64(%rbp), %rax
	movq	%rax, %rcx
	call	_ZSt7forwardIiEOT_RNSt16remove_referenceIS0_E4typeE
	movq	%rax, %r12
	movq	56(%rbp), %rax
	movq	%rax, %rcx
	call	_ZSt7forwardIiEOT_RNSt16remove_referenceIS0_E4typeE
	movq	%rax, %rdi
	leaq	-1(%rbp), %rax
	movq	%rax, %rcx
	call	_ZNSaI4EdgeEC1Ev
	movq	48(%rbp), %rcx
	leaq	-1(%rbp), %rax
	movq	%rsi, 40(%rsp)
	movq	%rbx, 32(%rsp)
	movq	%r12, %r9
	movq	%rdi, %r8
	movq	%rax, %rdx
.LEHB45:
	call	_ZSt15allocate_sharedI4EdgeSaIS0_EJiiiiEESt10shared_ptrIT_ERKT0_DpOT1_
.LEHE45:
	leaq	-1(%rbp), %rax
	movq	%rax, %rcx
	call	_ZNSaI4EdgeED1Ev
	jmp	.L337
.L336:
	movq	%rax, %rbx
	leaq	-1(%rbp), %rax
	movq	%rax, %rcx
	call	_ZNSaI4EdgeED1Ev
	movq	%rbx, %rax
	movq	%rax, %rcx
.LEHB46:
	call	_Unwind_Resume
.LEHE46:
.L337:
	movq	48(%rbp), %rax
	addq	$64, %rsp
	popq	%rbx
	popq	%rsi
	popq	%rdi
	popq	%r12
	popq	%rbp
	ret
	.seh_handler	__gxx_personality_seh0, @unwind, @except
	.seh_handlerdata
.LLSDA4481:
	.byte	0xff
	.byte	0xff
	.byte	0x1
	.uleb128 .LLSDACSE4481-.LLSDACSB4481
.LLSDACSB4481:
	.uleb128 .LEHB45-.LFB4481
	.uleb128 .LEHE45-.LEHB45
	.uleb128 .L336-.LFB4481
	.uleb128 0
	.uleb128 .LEHB46-.LFB4481
	.uleb128 .LEHE46-.LEHB46
	.uleb128 0
	.uleb128 0
.LLSDACSE4481:
	.section	.text$_ZSt11make_sharedI4EdgeJiiiiEESt10shared_ptrIT_EDpOT0_,"x"
	.linkonce discard
	.seh_endproc
	.section	.text$_ZNSt10shared_ptrI4EdgeEC1EOS1_,"x"
	.linkonce discard
	.align 2
	.globl	_ZNSt10shared_ptrI4EdgeEC1EOS1_
	.def	_ZNSt10shared_ptrI4EdgeEC1EOS1_;	.scl	2;	.type	32;	.endef
	.seh_proc	_ZNSt10shared_ptrI4EdgeEC1EOS1_
_ZNSt10shared_ptrI4EdgeEC1EOS1_:
.LFB4484:
	pushq	%rbp
	.seh_pushreg	%rbp
	pushq	%rbx
	.seh_pushreg	%rbx
	subq	$40, %rsp
	.seh_stackalloc	40
	leaq	128(%rsp), %rbp
	.seh_setframe	%rbp, 128
	.seh_endprologue
	movq	%rcx, -64(%rbp)
	movq	%rdx, -56(%rbp)
	movq	-64(%rbp), %rbx
	movq	-56(%rbp), %rax
	movq	%rax, %rcx
	call	_ZSt4moveIRSt10shared_ptrI4EdgeEEONSt16remove_referenceIT_E4typeEOS5_
	movq	%rax, %rdx
	movq	%rbx, %rcx
	call	_ZNSt12__shared_ptrI4EdgeLN9__gnu_cxx12_Lock_policyE2EEC2EOS3_
	nop
	addq	$40, %rsp
	popq	%rbx
	popq	%rbp
	ret
	.seh_endproc
	.section	.text$_ZSt4moveIRSt10shared_ptrI4EdgeEEONSt16remove_referenceIT_E4typeEOS5_,"x"
	.linkonce discard
	.globl	_ZSt4moveIRSt10shared_ptrI4EdgeEEONSt16remove_referenceIT_E4typeEOS5_
	.def	_ZSt4moveIRSt10shared_ptrI4EdgeEEONSt16remove_referenceIT_E4typeEOS5_;	.scl	2;	.type	32;	.endef
	.seh_proc	_ZSt4moveIRSt10shared_ptrI4EdgeEEONSt16remove_referenceIT_E4typeEOS5_
_ZSt4moveIRSt10shared_ptrI4EdgeEEONSt16remove_referenceIT_E4typeEOS5_:
.LFB4485:
	pushq	%rbp
	.seh_pushreg	%rbp
	movq	%rsp, %rbp
	.seh_setframe	%rbp, 0
	.seh_endprologue
	movq	%rcx, 16(%rbp)
	movq	16(%rbp), %rax
	popq	%rbp
	ret
	.seh_endproc
	.section	.text$_ZNSt6vectorISt10shared_ptrI4EdgeESaIS2_EE12emplace_backIJS2_EEEvDpOT_,"x"
	.linkonce discard
	.align 2
	.globl	_ZNSt6vectorISt10shared_ptrI4EdgeESaIS2_EE12emplace_backIJS2_EEEvDpOT_
	.def	_ZNSt6vectorISt10shared_ptrI4EdgeESaIS2_EE12emplace_backIJS2_EEEvDpOT_;	.scl	2;	.type	32;	.endef
	.seh_proc	_ZNSt6vectorISt10shared_ptrI4EdgeESaIS2_EE12emplace_backIJS2_EEEvDpOT_
_ZNSt6vectorISt10shared_ptrI4EdgeESaIS2_EE12emplace_backIJS2_EEEvDpOT_:
.LFB4486:
	pushq	%rbp
	.seh_pushreg	%rbp
	pushq	%rbx
	.seh_pushreg	%rbx
	subq	$40, %rsp
	.seh_stackalloc	40
	leaq	128(%rsp), %rbp
	.seh_setframe	%rbp, 128
	.seh_endprologue
	movq	%rcx, -64(%rbp)
	movq	%rdx, -56(%rbp)
	movq	-64(%rbp), %rax
	movq	8(%rax), %rdx
	movq	-64(%rbp), %rax
	movq	16(%rax), %rax
	cmpq	%rax, %rdx
	je	.L342
	movq	-56(%rbp), %rax
	movq	%rax, %rcx
	call	_ZSt7forwardISt10shared_ptrI4EdgeEEOT_RNSt16remove_referenceIS3_E4typeE
	movq	%rax, %rcx
	movq	-64(%rbp), %rax
	movq	8(%rax), %rdx
	movq	-64(%rbp), %rax
	movq	%rcx, %r8
	movq	%rax, %rcx
	call	_ZNSt16allocator_traitsISaISt10shared_ptrI4EdgeEEE9constructIS2_JS2_EEEvRS3_PT_DpOT0_
	movq	-64(%rbp), %rax
	movq	8(%rax), %rax
	leaq	16(%rax), %rdx
	movq	-64(%rbp), %rax
	movq	%rdx, 8(%rax)
	jmp	.L344
.L342:
	movq	-56(%rbp), %rax
	movq	%rax, %rcx
	call	_ZSt7forwardISt10shared_ptrI4EdgeEEOT_RNSt16remove_referenceIS3_E4typeE
	movq	%rax, %rbx
	movq	-64(%rbp), %rcx
	call	_ZNSt6vectorISt10shared_ptrI4EdgeESaIS2_EE3endEv
	movq	%rbx, %r8
	movq	%rax, %rdx
	movq	-64(%rbp), %rcx
	call	_ZNSt6vectorISt10shared_ptrI4EdgeESaIS2_EE17_M_realloc_insertIJS2_EEEvN9__gnu_cxx17__normal_iteratorIPS2_S4_EEDpOT_
.L344:
	nop
	addq	$40, %rsp
	popq	%rbx
	popq	%rbp
	ret
	.seh_endproc
	.section	.text$_ZNSt6vectorISt10shared_ptrI4EdgeESaIS2_EEC1ERKS4_,"x"
	.linkonce discard
	.align 2
	.globl	_ZNSt6vectorISt10shared_ptrI4EdgeESaIS2_EEC1ERKS4_
	.def	_ZNSt6vectorISt10shared_ptrI4EdgeESaIS2_EEC1ERKS4_;	.scl	2;	.type	32;	.endef
	.seh_proc	_ZNSt6vectorISt10shared_ptrI4EdgeESaIS2_EEC1ERKS4_
_ZNSt6vectorISt10shared_ptrI4EdgeESaIS2_EEC1ERKS4_:
.LFB4489:
	pushq	%rbp
	.seh_pushreg	%rbp
	pushq	%rdi
	.seh_pushreg	%rdi
	pushq	%rsi
	.seh_pushreg	%rsi
	pushq	%rbx
	.seh_pushreg	%rbx
	subq	$56, %rsp
	.seh_stackalloc	56
	leaq	128(%rsp), %rbp
	.seh_setframe	%rbp, 128
	.seh_endprologue
	movq	%rcx, -32(%rbp)
	movq	%rdx, -24(%rbp)
	movq	-32(%rbp), %rbx
	movq	-24(%rbp), %rax
	movq	%rax, %rcx
	call	_ZNKSt12_Vector_baseISt10shared_ptrI4EdgeESaIS2_EE19_M_get_Tp_allocatorEv
	movq	%rax, %rdx
	leaq	-81(%rbp), %rax
	movq	%rax, %rcx
.LEHB47:
	call	_ZN9__gnu_cxx14__alloc_traitsISaISt10shared_ptrI4EdgeEES3_E17_S_select_on_copyERKS4_
.LEHE47:
	movq	-24(%rbp), %rax
	movq	%rax, %rcx
	call	_ZNKSt6vectorISt10shared_ptrI4EdgeESaIS2_EE4sizeEv
	movq	%rax, %rdx
	leaq	-81(%rbp), %rax
	movq	%rax, %r8
	movq	%rbx, %rcx
.LEHB48:
	call	_ZNSt12_Vector_baseISt10shared_ptrI4EdgeESaIS2_EEC2EyRKS3_
.LEHE48:
	leaq	-81(%rbp), %rax
	movq	%rax, %rcx
	call	_ZNSaISt10shared_ptrI4EdgeEED1Ev
	movq	-32(%rbp), %rax
	movq	%rax, %rcx
	call	_ZNSt12_Vector_baseISt10shared_ptrI4EdgeESaIS2_EE19_M_get_Tp_allocatorEv
	movq	%rax, %rdi
	movq	-32(%rbp), %rax
	movq	(%rax), %rbx
	movq	-24(%rbp), %rax
	movq	%rax, %rcx
	call	_ZNKSt6vectorISt10shared_ptrI4EdgeESaIS2_EE3endEv
	movq	%rax, %rsi
	movq	-24(%rbp), %rax
	movq	%rax, %rcx
	call	_ZNKSt6vectorISt10shared_ptrI4EdgeESaIS2_EE5beginEv
	movq	%rdi, %r9
	movq	%rbx, %r8
	movq	%rsi, %rdx
	movq	%rax, %rcx
.LEHB49:
	call	_ZSt22__uninitialized_copy_aIN9__gnu_cxx17__normal_iteratorIPKSt10shared_ptrI4EdgeESt6vectorIS4_SaIS4_EEEEPS4_S4_ET0_T_SD_SC_RSaIT1_E
.LEHE49:
	movq	%rax, %rdx
	movq	-32(%rbp), %rax
	movq	%rdx, 8(%rax)
	jmp	.L350
.L348:
	movq	%rax, %rbx
	leaq	-81(%rbp), %rax
	movq	%rax, %rcx
	call	_ZNSaISt10shared_ptrI4EdgeEED1Ev
	movq	%rbx, %rax
	movq	%rax, %rcx
.LEHB50:
	call	_Unwind_Resume
.L349:
	movq	%rax, %rbx
	movq	-32(%rbp), %rax
	movq	%rax, %rcx
	call	_ZNSt12_Vector_baseISt10shared_ptrI4EdgeESaIS2_EED2Ev
	movq	%rbx, %rax
	movq	%rax, %rcx
	call	_Unwind_Resume
	nop
.LEHE50:
.L350:
	addq	$56, %rsp
	popq	%rbx
	popq	%rsi
	popq	%rdi
	popq	%rbp
	ret
	.seh_handler	__gxx_personality_seh0, @unwind, @except
	.seh_handlerdata
.LLSDA4489:
	.byte	0xff
	.byte	0xff
	.byte	0x1
	.uleb128 .LLSDACSE4489-.LLSDACSB4489
.LLSDACSB4489:
	.uleb128 .LEHB47-.LFB4489
	.uleb128 .LEHE47-.LEHB47
	.uleb128 0
	.uleb128 0
	.uleb128 .LEHB48-.LFB4489
	.uleb128 .LEHE48-.LEHB48
	.uleb128 .L348-.LFB4489
	.uleb128 0
	.uleb128 .LEHB49-.LFB4489
	.uleb128 .LEHE49-.LEHB49
	.uleb128 .L349-.LFB4489
	.uleb128 0
	.uleb128 .LEHB50-.LFB4489
	.uleb128 .LEHE50-.LEHB50
	.uleb128 0
	.uleb128 0
.LLSDACSE4489:
	.section	.text$_ZNSt6vectorISt10shared_ptrI4EdgeESaIS2_EEC1ERKS4_,"x"
	.linkonce discard
	.seh_endproc
	.section	.text$_ZNSt6vectorISt5arrayIfLy3EESaIS1_EE5beginEv,"x"
	.linkonce discard
	.align 2
	.globl	_ZNSt6vectorISt5arrayIfLy3EESaIS1_EE5beginEv
	.def	_ZNSt6vectorISt5arrayIfLy3EESaIS1_EE5beginEv;	.scl	2;	.type	32;	.endef
	.seh_proc	_ZNSt6vectorISt5arrayIfLy3EESaIS1_EE5beginEv
_ZNSt6vectorISt5arrayIfLy3EESaIS1_EE5beginEv:
.LFB4490:
	pushq	%rbp
	.seh_pushreg	%rbp
	movq	%rsp, %rbp
	.seh_setframe	%rbp, 0
	subq	$48, %rsp
	.seh_stackalloc	48
	.seh_endprologue
	movq	%rcx, 16(%rbp)
	movq	16(%rbp), %rdx
	leaq	-8(%rbp), %rax
	movq	%rax, %rcx
	call	_ZN9__gnu_cxx17__normal_iteratorIPSt5arrayIfLy3EESt6vectorIS2_SaIS2_EEEC1ERKS3_
	movq	-8(%rbp), %rax
	addq	$48, %rsp
	popq	%rbp
	ret
	.seh_endproc
	.section	.text$_ZNSt6vectorISt5arrayIfLy3EESaIS1_EE3endEv,"x"
	.linkonce discard
	.align 2
	.globl	_ZNSt6vectorISt5arrayIfLy3EESaIS1_EE3endEv
	.def	_ZNSt6vectorISt5arrayIfLy3EESaIS1_EE3endEv;	.scl	2;	.type	32;	.endef
	.seh_proc	_ZNSt6vectorISt5arrayIfLy3EESaIS1_EE3endEv
_ZNSt6vectorISt5arrayIfLy3EESaIS1_EE3endEv:
.LFB4491:
	pushq	%rbp
	.seh_pushreg	%rbp
	movq	%rsp, %rbp
	.seh_setframe	%rbp, 0
	subq	$48, %rsp
	.seh_stackalloc	48
	.seh_endprologue
	movq	%rcx, 16(%rbp)
	movq	16(%rbp), %rax
	leaq	8(%rax), %rdx
	leaq	-8(%rbp), %rax
	movq	%rax, %rcx
	call	_ZN9__gnu_cxx17__normal_iteratorIPSt5arrayIfLy3EESt6vectorIS2_SaIS2_EEEC1ERKS3_
	movq	-8(%rbp), %rax
	addq	$48, %rsp
	popq	%rbp
	ret
	.seh_endproc
	.section	.text$_ZSt4sortIN9__gnu_cxx17__normal_iteratorIPSt5arrayIfLy3EESt6vectorIS3_SaIS3_EEEEZN19TrianglesGeneration14sort_trianglesEvEUlRKS3_SB_E_EvT_SD_T0_,"x"
	.linkonce discard
	.globl	_ZSt4sortIN9__gnu_cxx17__normal_iteratorIPSt5arrayIfLy3EESt6vectorIS3_SaIS3_EEEEZN19TrianglesGeneration14sort_trianglesEvEUlRKS3_SB_E_EvT_SD_T0_
	.def	_ZSt4sortIN9__gnu_cxx17__normal_iteratorIPSt5arrayIfLy3EESt6vectorIS3_SaIS3_EEEEZN19TrianglesGeneration14sort_trianglesEvEUlRKS3_SB_E_EvT_SD_T0_;	.scl	2;	.type	32;	.endef
	.seh_proc	_ZSt4sortIN9__gnu_cxx17__normal_iteratorIPSt5arrayIfLy3EESt6vectorIS3_SaIS3_EEEEZN19TrianglesGeneration14sort_trianglesEvEUlRKS3_SB_E_EvT_SD_T0_
_ZSt4sortIN9__gnu_cxx17__normal_iteratorIPSt5arrayIfLy3EESt6vectorIS3_SaIS3_EEEEZN19TrianglesGeneration14sort_trianglesEvEUlRKS3_SB_E_EvT_SD_T0_:
.LFB4492:
	pushq	%rbp
	.seh_pushreg	%rbp
	pushq	%rbx
	.seh_pushreg	%rbx
	subq	$40, %rsp
	.seh_stackalloc	40
	leaq	128(%rsp), %rbp
	.seh_setframe	%rbp, 128
	.seh_endprologue
	movq	%rcx, -64(%rbp)
	movq	%rdx, -56(%rbp)
	movb	%r8b, -48(%rbp)
	movl	%eax, %ecx
	call	_ZN9__gnu_cxx5__ops16__iter_comp_iterIZN19TrianglesGeneration14sort_trianglesEvEUlRKSt5arrayIfLy3EES6_E_EENS0_15_Iter_comp_iterIT_EES9_
	movq	-56(%rbp), %rax
	movl	%ebx, %r8d
	movq	%rax, %rdx
	movq	-64(%rbp), %rcx
	call	_ZSt6__sortIN9__gnu_cxx17__normal_iteratorIPSt5arrayIfLy3EESt6vectorIS3_SaIS3_EEEENS0_5__ops15_Iter_comp_iterIZN19TrianglesGeneration14sort_trianglesEvEUlRKS3_SD_E_EEEvT_SG_T0_
	nop
	addq	$40, %rsp
	popq	%rbx
	popq	%rbp
	ret
	.seh_endproc
	.section	.text$_ZSt6uniqueIN9__gnu_cxx17__normal_iteratorIPSt5arrayIfLy3EESt6vectorIS3_SaIS3_EEEEZN19TrianglesGeneration16filter_triangelsEvEUlRKS3_SB_E_ET_SD_SD_T0_,"x"
	.linkonce discard
	.globl	_ZSt6uniqueIN9__gnu_cxx17__normal_iteratorIPSt5arrayIfLy3EESt6vectorIS3_SaIS3_EEEEZN19TrianglesGeneration16filter_triangelsEvEUlRKS3_SB_E_ET_SD_SD_T0_
	.def	_ZSt6uniqueIN9__gnu_cxx17__normal_iteratorIPSt5arrayIfLy3EESt6vectorIS3_SaIS3_EEEEZN19TrianglesGeneration16filter_triangelsEvEUlRKS3_SB_E_ET_SD_SD_T0_;	.scl	2;	.type	32;	.endef
	.seh_proc	_ZSt6uniqueIN9__gnu_cxx17__normal_iteratorIPSt5arrayIfLy3EESt6vectorIS3_SaIS3_EEEEZN19TrianglesGeneration16filter_triangelsEvEUlRKS3_SB_E_ET_SD_SD_T0_
_ZSt6uniqueIN9__gnu_cxx17__normal_iteratorIPSt5arrayIfLy3EESt6vectorIS3_SaIS3_EEEEZN19TrianglesGeneration16filter_triangelsEvEUlRKS3_SB_E_ET_SD_SD_T0_:
.LFB4493:
	pushq	%rbp
	.seh_pushreg	%rbp
	pushq	%rbx
	.seh_pushreg	%rbx
	subq	$40, %rsp
	.seh_stackalloc	40
	leaq	128(%rsp), %rbp
	.seh_setframe	%rbp, 128
	.seh_endprologue
	movq	%rcx, -64(%rbp)
	movq	%rdx, -56(%rbp)
	movb	%r8b, -48(%rbp)
	movl	%eax, %ecx
	call	_ZN9__gnu_cxx5__ops16__iter_comp_iterIZN19TrianglesGeneration16filter_triangelsEvEUlRKSt5arrayIfLy3EES6_E_EENS0_15_Iter_comp_iterIT_EES9_
	movq	-56(%rbp), %rax
	movl	%ebx, %r8d
	movq	%rax, %rdx
	movq	-64(%rbp), %rcx
	call	_ZSt8__uniqueIN9__gnu_cxx17__normal_iteratorIPSt5arrayIfLy3EESt6vectorIS3_SaIS3_EEEENS0_5__ops15_Iter_comp_iterIZN19TrianglesGeneration16filter_triangelsEvEUlRKS3_SD_E_EEET_SG_SG_T0_
	addq	$40, %rsp
	popq	%rbx
	popq	%rbp
	ret
	.seh_endproc
	.section	.text$_ZSt8distanceIN9__gnu_cxx17__normal_iteratorIPSt5arrayIfLy3EESt6vectorIS3_SaIS3_EEEEENSt15iterator_traitsIT_E15difference_typeESA_SA_,"x"
	.linkonce discard
	.globl	_ZSt8distanceIN9__gnu_cxx17__normal_iteratorIPSt5arrayIfLy3EESt6vectorIS3_SaIS3_EEEEENSt15iterator_traitsIT_E15difference_typeESA_SA_
	.def	_ZSt8distanceIN9__gnu_cxx17__normal_iteratorIPSt5arrayIfLy3EESt6vectorIS3_SaIS3_EEEEENSt15iterator_traitsIT_E15difference_typeESA_SA_;	.scl	2;	.type	32;	.endef
	.seh_proc	_ZSt8distanceIN9__gnu_cxx17__normal_iteratorIPSt5arrayIfLy3EESt6vectorIS3_SaIS3_EEEEENSt15iterator_traitsIT_E15difference_typeESA_SA_
_ZSt8distanceIN9__gnu_cxx17__normal_iteratorIPSt5arrayIfLy3EESt6vectorIS3_SaIS3_EEEEENSt15iterator_traitsIT_E15difference_typeESA_SA_:
.LFB4494:
	pushq	%rbp
	.seh_pushreg	%rbp
	pushq	%rbx
	.seh_pushreg	%rbx
	subq	$56, %rsp
	.seh_stackalloc	56
	leaq	128(%rsp), %rbp
	.seh_setframe	%rbp, 128
	.seh_endprologue
	movq	%rcx, -48(%rbp)
	movq	%rdx, -40(%rbp)
	leaq	-48(%rbp), %rcx
	call	_ZSt19__iterator_categoryIN9__gnu_cxx17__normal_iteratorIPSt5arrayIfLy3EESt6vectorIS3_SaIS3_EEEEENSt15iterator_traitsIT_E17iterator_categoryERKSA_
	movq	-40(%rbp), %rax
	movl	%ebx, %r8d
	movq	%rax, %rdx
	movq	-48(%rbp), %rcx
	call	_ZSt10__distanceIN9__gnu_cxx17__normal_iteratorIPSt5arrayIfLy3EESt6vectorIS3_SaIS3_EEEEENSt15iterator_traitsIT_E15difference_typeESA_SA_St26random_access_iterator_tag
	nop
	addq	$56, %rsp
	popq	%rbx
	popq	%rbp
	ret
	.seh_endproc
	.section	.text$_ZNSt6vectorISt5arrayIfLy3EESaIS1_EE6resizeEy,"x"
	.linkonce discard
	.align 2
	.globl	_ZNSt6vectorISt5arrayIfLy3EESaIS1_EE6resizeEy
	.def	_ZNSt6vectorISt5arrayIfLy3EESaIS1_EE6resizeEy;	.scl	2;	.type	32;	.endef
	.seh_proc	_ZNSt6vectorISt5arrayIfLy3EESaIS1_EE6resizeEy
_ZNSt6vectorISt5arrayIfLy3EESaIS1_EE6resizeEy:
.LFB4495:
	pushq	%rbp
	.seh_pushreg	%rbp
	movq	%rsp, %rbp
	.seh_setframe	%rbp, 0
	subq	$32, %rsp
	.seh_stackalloc	32
	.seh_endprologue
	movq	%rcx, 16(%rbp)
	movq	%rdx, 24(%rbp)
	movq	16(%rbp), %rcx
	call	_ZNKSt6vectorISt5arrayIfLy3EESaIS1_EE4sizeEv
	cmpq	%rax, 24(%rbp)
	seta	%al
	testb	%al, %al
	je	.L361
	movq	16(%rbp), %rcx
	call	_ZNKSt6vectorISt5arrayIfLy3EESaIS1_EE4sizeEv
	movq	%rax, %rdx
	movq	24(%rbp), %rax
	subq	%rdx, %rax
	movq	%rax, %rdx
	movq	16(%rbp), %rcx
	call	_ZNSt6vectorISt5arrayIfLy3EESaIS1_EE17_M_default_appendEy
	jmp	.L363
.L361:
	movq	16(%rbp), %rcx
	call	_ZNKSt6vectorISt5arrayIfLy3EESaIS1_EE4sizeEv
	cmpq	%rax, 24(%rbp)
	setb	%al
	testb	%al, %al
	je	.L363
	movq	16(%rbp), %rax
	movq	(%rax), %rcx
	movq	24(%rbp), %rdx
	movq	%rdx, %rax
	addq	%rax, %rax
	addq	%rdx, %rax
	salq	$2, %rax
	addq	%rcx, %rax
	movq	%rax, %rdx
	movq	16(%rbp), %rcx
	call	_ZNSt6vectorISt5arrayIfLy3EESaIS1_EE15_M_erase_at_endEPS1_
.L363:
	nop
	addq	$32, %rsp
	popq	%rbp
	ret
	.seh_endproc
	.section	.text$_ZNSt6vectorISt5arrayIfLy3EESaIS1_EEC1Ev,"x"
	.linkonce discard
	.align 2
	.globl	_ZNSt6vectorISt5arrayIfLy3EESaIS1_EEC1Ev
	.def	_ZNSt6vectorISt5arrayIfLy3EESaIS1_EEC1Ev;	.scl	2;	.type	32;	.endef
	.seh_proc	_ZNSt6vectorISt5arrayIfLy3EESaIS1_EEC1Ev
_ZNSt6vectorISt5arrayIfLy3EESaIS1_EEC1Ev:
.LFB4498:
	pushq	%rbp
	.seh_pushreg	%rbp
	movq	%rsp, %rbp
	.seh_setframe	%rbp, 0
	subq	$32, %rsp
	.seh_stackalloc	32
	.seh_endprologue
	movq	%rcx, 16(%rbp)
	movq	16(%rbp), %rax
	movq	%rax, %rcx
	call	_ZNSt12_Vector_baseISt5arrayIfLy3EESaIS1_EEC2Ev
	nop
	addq	$32, %rsp
	popq	%rbp
	ret
	.seh_handler	__gxx_personality_seh0, @unwind, @except
	.seh_handlerdata
.LLSDA4498:
	.byte	0xff
	.byte	0xff
	.byte	0x1
	.uleb128 .LLSDACSE4498-.LLSDACSB4498
.LLSDACSB4498:
.LLSDACSE4498:
	.section	.text$_ZNSt6vectorISt5arrayIfLy3EESaIS1_EEC1Ev,"x"
	.linkonce discard
	.seh_endproc
	.section	.text$_ZNSt6vectorISt5arrayIfLy3EESaIS1_EED1Ev,"x"
	.linkonce discard
	.align 2
	.globl	_ZNSt6vectorISt5arrayIfLy3EESaIS1_EED1Ev
	.def	_ZNSt6vectorISt5arrayIfLy3EESaIS1_EED1Ev;	.scl	2;	.type	32;	.endef
	.seh_proc	_ZNSt6vectorISt5arrayIfLy3EESaIS1_EED1Ev
_ZNSt6vectorISt5arrayIfLy3EESaIS1_EED1Ev:
.LFB4501:
	pushq	%rbp
	.seh_pushreg	%rbp
	movq	%rsp, %rbp
	.seh_setframe	%rbp, 0
	subq	$32, %rsp
	.seh_stackalloc	32
	.seh_endprologue
	movq	%rcx, 16(%rbp)
	movq	16(%rbp), %rax
	movq	%rax, %rcx
	call	_ZNSt12_Vector_baseISt5arrayIfLy3EESaIS1_EE19_M_get_Tp_allocatorEv
	movq	%rax, %rcx
	movq	16(%rbp), %rax
	movq	8(%rax), %rdx
	movq	16(%rbp), %rax
	movq	(%rax), %rax
	movq	%rcx, %r8
	movq	%rax, %rcx
	call	_ZSt8_DestroyIPSt5arrayIfLy3EES1_EvT_S3_RSaIT0_E
	movq	16(%rbp), %rax
	movq	%rax, %rcx
	call	_ZNSt12_Vector_baseISt5arrayIfLy3EESaIS1_EED2Ev
	nop
	addq	$32, %rsp
	popq	%rbp
	ret
	.seh_handler	__gxx_personality_seh0, @unwind, @except
	.seh_handlerdata
.LLSDA4501:
	.byte	0xff
	.byte	0xff
	.byte	0x1
	.uleb128 .LLSDACSE4501-.LLSDACSB4501
.LLSDACSB4501:
.LLSDACSE4501:
	.section	.text$_ZNSt6vectorISt5arrayIfLy3EESaIS1_EED1Ev,"x"
	.linkonce discard
	.seh_endproc
	.section	.text$_ZNSt6vectorISt5arrayIfLy3EESaIS1_EE5clearEv,"x"
	.linkonce discard
	.align 2
	.globl	_ZNSt6vectorISt5arrayIfLy3EESaIS1_EE5clearEv
	.def	_ZNSt6vectorISt5arrayIfLy3EESaIS1_EE5clearEv;	.scl	2;	.type	32;	.endef
	.seh_proc	_ZNSt6vectorISt5arrayIfLy3EESaIS1_EE5clearEv
_ZNSt6vectorISt5arrayIfLy3EESaIS1_EE5clearEv:
.LFB4502:
	pushq	%rbp
	.seh_pushreg	%rbp
	movq	%rsp, %rbp
	.seh_setframe	%rbp, 0
	subq	$32, %rsp
	.seh_stackalloc	32
	.seh_endprologue
	movq	%rcx, 16(%rbp)
	movq	16(%rbp), %rax
	movq	(%rax), %rax
	movq	%rax, %rdx
	movq	16(%rbp), %rcx
	call	_ZNSt6vectorISt5arrayIfLy3EESaIS1_EE15_M_erase_at_endEPS1_
	nop
	addq	$32, %rsp
	popq	%rbp
	ret
	.seh_endproc
	.section	.text$_ZNKSt6vectorISt10shared_ptrI4EdgeESaIS2_EE5beginEv,"x"
	.linkonce discard
	.align 2
	.globl	_ZNKSt6vectorISt10shared_ptrI4EdgeESaIS2_EE5beginEv
	.def	_ZNKSt6vectorISt10shared_ptrI4EdgeESaIS2_EE5beginEv;	.scl	2;	.type	32;	.endef
	.seh_proc	_ZNKSt6vectorISt10shared_ptrI4EdgeESaIS2_EE5beginEv
_ZNKSt6vectorISt10shared_ptrI4EdgeESaIS2_EE5beginEv:
.LFB4503:
	pushq	%rbp
	.seh_pushreg	%rbp
	movq	%rsp, %rbp
	.seh_setframe	%rbp, 0
	subq	$48, %rsp
	.seh_stackalloc	48
	.seh_endprologue
	movq	%rcx, 16(%rbp)
	movq	16(%rbp), %rax
	movq	(%rax), %rax
	movq	%rax, -8(%rbp)
	leaq	-8(%rbp), %rdx
	leaq	-16(%rbp), %rax
	movq	%rax, %rcx
	call	_ZN9__gnu_cxx17__normal_iteratorIPKSt10shared_ptrI4EdgeESt6vectorIS3_SaIS3_EEEC1ERKS5_
	movq	-16(%rbp), %rax
	addq	$48, %rsp
	popq	%rbp
	ret
	.seh_endproc
	.section	.text$_ZNKSt6vectorISt10shared_ptrI4EdgeESaIS2_EE3endEv,"x"
	.linkonce discard
	.align 2
	.globl	_ZNKSt6vectorISt10shared_ptrI4EdgeESaIS2_EE3endEv
	.def	_ZNKSt6vectorISt10shared_ptrI4EdgeESaIS2_EE3endEv;	.scl	2;	.type	32;	.endef
	.seh_proc	_ZNKSt6vectorISt10shared_ptrI4EdgeESaIS2_EE3endEv
_ZNKSt6vectorISt10shared_ptrI4EdgeESaIS2_EE3endEv:
.LFB4504:
	pushq	%rbp
	.seh_pushreg	%rbp
	movq	%rsp, %rbp
	.seh_setframe	%rbp, 0
	subq	$48, %rsp
	.seh_stackalloc	48
	.seh_endprologue
	movq	%rcx, 16(%rbp)
	movq	16(%rbp), %rax
	movq	8(%rax), %rax
	movq	%rax, -8(%rbp)
	leaq	-8(%rbp), %rdx
	leaq	-16(%rbp), %rax
	movq	%rax, %rcx
	call	_ZN9__gnu_cxx17__normal_iteratorIPKSt10shared_ptrI4EdgeESt6vectorIS3_SaIS3_EEEC1ERKS5_
	movq	-16(%rbp), %rax
	addq	$48, %rsp
	popq	%rbp
	ret
	.seh_endproc
	.section	.text$_ZN9__gnu_cxxneIPKSt10shared_ptrI4EdgeESt6vectorIS3_SaIS3_EEEEbRKNS_17__normal_iteratorIT_T0_EESE_,"x"
	.linkonce discard
	.globl	_ZN9__gnu_cxxneIPKSt10shared_ptrI4EdgeESt6vectorIS3_SaIS3_EEEEbRKNS_17__normal_iteratorIT_T0_EESE_
	.def	_ZN9__gnu_cxxneIPKSt10shared_ptrI4EdgeESt6vectorIS3_SaIS3_EEEEbRKNS_17__normal_iteratorIT_T0_EESE_;	.scl	2;	.type	32;	.endef
	.seh_proc	_ZN9__gnu_cxxneIPKSt10shared_ptrI4EdgeESt6vectorIS3_SaIS3_EEEEbRKNS_17__normal_iteratorIT_T0_EESE_
_ZN9__gnu_cxxneIPKSt10shared_ptrI4EdgeESt6vectorIS3_SaIS3_EEEEbRKNS_17__normal_iteratorIT_T0_EESE_:
.LFB4505:
	pushq	%rbp
	.seh_pushreg	%rbp
	pushq	%rbx
	.seh_pushreg	%rbx
	subq	$40, %rsp
	.seh_stackalloc	40
	leaq	128(%rsp), %rbp
	.seh_setframe	%rbp, 128
	.seh_endprologue
	movq	%rcx, -64(%rbp)
	movq	%rdx, -56(%rbp)
	movq	-64(%rbp), %rcx
	call	_ZNK9__gnu_cxx17__normal_iteratorIPKSt10shared_ptrI4EdgeESt6vectorIS3_SaIS3_EEE4baseEv
	movq	(%rax), %rbx
	movq	-56(%rbp), %rax
	movq	%rax, %rcx
	call	_ZNK9__gnu_cxx17__normal_iteratorIPKSt10shared_ptrI4EdgeESt6vectorIS3_SaIS3_EEE4baseEv
	movq	(%rax), %rax
	cmpq	%rax, %rbx
	setne	%al
	addq	$40, %rsp
	popq	%rbx
	popq	%rbp
	ret
	.seh_endproc
	.section	.text$_ZN9__gnu_cxx17__normal_iteratorIPKSt10shared_ptrI4EdgeESt6vectorIS3_SaIS3_EEEppEv,"x"
	.linkonce discard
	.align 2
	.globl	_ZN9__gnu_cxx17__normal_iteratorIPKSt10shared_ptrI4EdgeESt6vectorIS3_SaIS3_EEEppEv
	.def	_ZN9__gnu_cxx17__normal_iteratorIPKSt10shared_ptrI4EdgeESt6vectorIS3_SaIS3_EEEppEv;	.scl	2;	.type	32;	.endef
	.seh_proc	_ZN9__gnu_cxx17__normal_iteratorIPKSt10shared_ptrI4EdgeESt6vectorIS3_SaIS3_EEEppEv
_ZN9__gnu_cxx17__normal_iteratorIPKSt10shared_ptrI4EdgeESt6vectorIS3_SaIS3_EEEppEv:
.LFB4506:
	pushq	%rbp
	.seh_pushreg	%rbp
	movq	%rsp, %rbp
	.seh_setframe	%rbp, 0
	.seh_endprologue
	movq	%rcx, 16(%rbp)
	movq	16(%rbp), %rax
	movq	(%rax), %rax
	leaq	16(%rax), %rdx
	movq	16(%rbp), %rax
	movq	%rdx, (%rax)
	movq	16(%rbp), %rax
	popq	%rbp
	ret
	.seh_endproc
	.section	.text$_ZNK9__gnu_cxx17__normal_iteratorIPKSt10shared_ptrI4EdgeESt6vectorIS3_SaIS3_EEEdeEv,"x"
	.linkonce discard
	.align 2
	.globl	_ZNK9__gnu_cxx17__normal_iteratorIPKSt10shared_ptrI4EdgeESt6vectorIS3_SaIS3_EEEdeEv
	.def	_ZNK9__gnu_cxx17__normal_iteratorIPKSt10shared_ptrI4EdgeESt6vectorIS3_SaIS3_EEEdeEv;	.scl	2;	.type	32;	.endef
	.seh_proc	_ZNK9__gnu_cxx17__normal_iteratorIPKSt10shared_ptrI4EdgeESt6vectorIS3_SaIS3_EEEdeEv
_ZNK9__gnu_cxx17__normal_iteratorIPKSt10shared_ptrI4EdgeESt6vectorIS3_SaIS3_EEEdeEv:
.LFB4507:
	pushq	%rbp
	.seh_pushreg	%rbp
	movq	%rsp, %rbp
	.seh_setframe	%rbp, 0
	.seh_endprologue
	movq	%rcx, 16(%rbp)
	movq	16(%rbp), %rax
	movq	(%rax), %rax
	popq	%rbp
	ret
	.seh_endproc
	.section	.text$_ZNSt6vectorISt5arrayIfLy3EESaIS1_EE9push_backEOS1_,"x"
	.linkonce discard
	.align 2
	.globl	_ZNSt6vectorISt5arrayIfLy3EESaIS1_EE9push_backEOS1_
	.def	_ZNSt6vectorISt5arrayIfLy3EESaIS1_EE9push_backEOS1_;	.scl	2;	.type	32;	.endef
	.seh_proc	_ZNSt6vectorISt5arrayIfLy3EESaIS1_EE9push_backEOS1_
_ZNSt6vectorISt5arrayIfLy3EESaIS1_EE9push_backEOS1_:
.LFB4508:
	pushq	%rbp
	.seh_pushreg	%rbp
	movq	%rsp, %rbp
	.seh_setframe	%rbp, 0
	subq	$32, %rsp
	.seh_stackalloc	32
	.seh_endprologue
	movq	%rcx, 16(%rbp)
	movq	%rdx, 24(%rbp)
	movq	24(%rbp), %rax
	movq	%rax, %rcx
	call	_ZSt4moveIRSt5arrayIfLy3EEEONSt16remove_referenceIT_E4typeEOS4_
	movq	%rax, %rdx
	movq	16(%rbp), %rcx
	call	_ZNSt6vectorISt5arrayIfLy3EESaIS1_EE12emplace_backIJS1_EEEvDpOT_
	nop
	addq	$32, %rsp
	popq	%rbp
	ret
	.seh_endproc
	.section	.text$_ZNSt6vectorISt5arrayIfLy3EESaIS1_EEC1ERKS3_,"x"
	.linkonce discard
	.align 2
	.globl	_ZNSt6vectorISt5arrayIfLy3EESaIS1_EEC1ERKS3_
	.def	_ZNSt6vectorISt5arrayIfLy3EESaIS1_EEC1ERKS3_;	.scl	2;	.type	32;	.endef
	.seh_proc	_ZNSt6vectorISt5arrayIfLy3EESaIS1_EEC1ERKS3_
_ZNSt6vectorISt5arrayIfLy3EESaIS1_EEC1ERKS3_:
.LFB4511:
	pushq	%rbp
	.seh_pushreg	%rbp
	pushq	%rdi
	.seh_pushreg	%rdi
	pushq	%rsi
	.seh_pushreg	%rsi
	pushq	%rbx
	.seh_pushreg	%rbx
	subq	$56, %rsp
	.seh_stackalloc	56
	leaq	128(%rsp), %rbp
	.seh_setframe	%rbp, 128
	.seh_endprologue
	movq	%rcx, -32(%rbp)
	movq	%rdx, -24(%rbp)
	movq	-32(%rbp), %rbx
	movq	-24(%rbp), %rax
	movq	%rax, %rcx
	call	_ZNKSt12_Vector_baseISt5arrayIfLy3EESaIS1_EE19_M_get_Tp_allocatorEv
	movq	%rax, %rdx
	leaq	-81(%rbp), %rax
	movq	%rax, %rcx
.LEHB51:
	call	_ZN9__gnu_cxx14__alloc_traitsISaISt5arrayIfLy3EEES2_E17_S_select_on_copyERKS3_
.LEHE51:
	movq	-24(%rbp), %rax
	movq	%rax, %rcx
	call	_ZNKSt6vectorISt5arrayIfLy3EESaIS1_EE4sizeEv
	movq	%rax, %rdx
	leaq	-81(%rbp), %rax
	movq	%rax, %r8
	movq	%rbx, %rcx
.LEHB52:
	call	_ZNSt12_Vector_baseISt5arrayIfLy3EESaIS1_EEC2EyRKS2_
.LEHE52:
	leaq	-81(%rbp), %rax
	movq	%rax, %rcx
	call	_ZNSaISt5arrayIfLy3EEED1Ev
	movq	-32(%rbp), %rax
	movq	%rax, %rcx
	call	_ZNSt12_Vector_baseISt5arrayIfLy3EESaIS1_EE19_M_get_Tp_allocatorEv
	movq	%rax, %rdi
	movq	-32(%rbp), %rax
	movq	(%rax), %rbx
	movq	-24(%rbp), %rax
	movq	%rax, %rcx
	call	_ZNKSt6vectorISt5arrayIfLy3EESaIS1_EE3endEv
	movq	%rax, %rsi
	movq	-24(%rbp), %rax
	movq	%rax, %rcx
	call	_ZNKSt6vectorISt5arrayIfLy3EESaIS1_EE5beginEv
	movq	%rdi, %r9
	movq	%rbx, %r8
	movq	%rsi, %rdx
	movq	%rax, %rcx
.LEHB53:
	call	_ZSt22__uninitialized_copy_aIN9__gnu_cxx17__normal_iteratorIPKSt5arrayIfLy3EESt6vectorIS3_SaIS3_EEEEPS3_S3_ET0_T_SC_SB_RSaIT1_E
.LEHE53:
	movq	%rax, %rdx
	movq	-32(%rbp), %rax
	movq	%rdx, 8(%rax)
	jmp	.L383
.L381:
	movq	%rax, %rbx
	leaq	-81(%rbp), %rax
	movq	%rax, %rcx
	call	_ZNSaISt5arrayIfLy3EEED1Ev
	movq	%rbx, %rax
	movq	%rax, %rcx
.LEHB54:
	call	_Unwind_Resume
.L382:
	movq	%rax, %rbx
	movq	-32(%rbp), %rax
	movq	%rax, %rcx
	call	_ZNSt12_Vector_baseISt5arrayIfLy3EESaIS1_EED2Ev
	movq	%rbx, %rax
	movq	%rax, %rcx
	call	_Unwind_Resume
	nop
.LEHE54:
.L383:
	addq	$56, %rsp
	popq	%rbx
	popq	%rsi
	popq	%rdi
	popq	%rbp
	ret
	.seh_handler	__gxx_personality_seh0, @unwind, @except
	.seh_handlerdata
.LLSDA4511:
	.byte	0xff
	.byte	0xff
	.byte	0x1
	.uleb128 .LLSDACSE4511-.LLSDACSB4511
.LLSDACSB4511:
	.uleb128 .LEHB51-.LFB4511
	.uleb128 .LEHE51-.LEHB51
	.uleb128 0
	.uleb128 0
	.uleb128 .LEHB52-.LFB4511
	.uleb128 .LEHE52-.LEHB52
	.uleb128 .L381-.LFB4511
	.uleb128 0
	.uleb128 .LEHB53-.LFB4511
	.uleb128 .LEHE53-.LEHB53
	.uleb128 .L382-.LFB4511
	.uleb128 0
	.uleb128 .LEHB54-.LFB4511
	.uleb128 .LEHE54-.LEHB54
	.uleb128 0
	.uleb128 0
.LLSDACSE4511:
	.section	.text$_ZNSt6vectorISt5arrayIfLy3EESaIS1_EEC1ERKS3_,"x"
	.linkonce discard
	.seh_endproc
	.section	.text$_ZNSt6vectorISt10shared_ptrI4EdgeESaIS2_EEaSEOS4_,"x"
	.linkonce discard
	.align 2
	.globl	_ZNSt6vectorISt10shared_ptrI4EdgeESaIS2_EEaSEOS4_
	.def	_ZNSt6vectorISt10shared_ptrI4EdgeESaIS2_EEaSEOS4_;	.scl	2;	.type	32;	.endef
	.seh_proc	_ZNSt6vectorISt10shared_ptrI4EdgeESaIS2_EEaSEOS4_
_ZNSt6vectorISt10shared_ptrI4EdgeESaIS2_EEaSEOS4_:
.LFB4512:
	pushq	%rbp
	.seh_pushreg	%rbp
	pushq	%rbx
	.seh_pushreg	%rbx
	subq	$56, %rsp
	.seh_stackalloc	56
	leaq	128(%rsp), %rbp
	.seh_setframe	%rbp, 128
	.seh_endprologue
	movq	%rcx, -48(%rbp)
	movq	%rdx, -40(%rbp)
	movb	$1, -81(%rbp)
	movq	-40(%rbp), %rax
	movq	%rax, %rcx
	call	_ZSt4moveIRSt6vectorISt10shared_ptrI4EdgeESaIS3_EEEONSt16remove_referenceIT_E4typeEOS8_
	movl	%ebx, %r8d
	movq	%rax, %rdx
	movq	-48(%rbp), %rcx
	call	_ZNSt6vectorISt10shared_ptrI4EdgeESaIS2_EE14_M_move_assignEOS4_St17integral_constantIbLb1EE
	movq	-48(%rbp), %rax
	addq	$56, %rsp
	popq	%rbx
	popq	%rbp
	ret
	.seh_endproc
	.section	.text$_ZNSt6vectorISt5arrayIfLy3EESaIS1_EEaSEOS3_,"x"
	.linkonce discard
	.align 2
	.globl	_ZNSt6vectorISt5arrayIfLy3EESaIS1_EEaSEOS3_
	.def	_ZNSt6vectorISt5arrayIfLy3EESaIS1_EEaSEOS3_;	.scl	2;	.type	32;	.endef
	.seh_proc	_ZNSt6vectorISt5arrayIfLy3EESaIS1_EEaSEOS3_
_ZNSt6vectorISt5arrayIfLy3EESaIS1_EEaSEOS3_:
.LFB4513:
	pushq	%rbp
	.seh_pushreg	%rbp
	pushq	%rbx
	.seh_pushreg	%rbx
	subq	$56, %rsp
	.seh_stackalloc	56
	leaq	128(%rsp), %rbp
	.seh_setframe	%rbp, 128
	.seh_endprologue
	movq	%rcx, -48(%rbp)
	movq	%rdx, -40(%rbp)
	movb	$1, -81(%rbp)
	movq	-40(%rbp), %rax
	movq	%rax, %rcx
	call	_ZSt4moveIRSt6vectorISt5arrayIfLy3EESaIS2_EEEONSt16remove_referenceIT_E4typeEOS7_
	movl	%ebx, %r8d
	movq	%rax, %rdx
	movq	-48(%rbp), %rcx
	call	_ZNSt6vectorISt5arrayIfLy3EESaIS1_EE14_M_move_assignEOS3_St17integral_constantIbLb1EE
	movq	-48(%rbp), %rax
	addq	$56, %rsp
	popq	%rbx
	popq	%rbp
	ret
	.seh_endproc
	.section	.text$_ZNSaI4CellEC1Ev,"x"
	.linkonce discard
	.align 2
	.globl	_ZNSaI4CellEC1Ev
	.def	_ZNSaI4CellEC1Ev;	.scl	2;	.type	32;	.endef
	.seh_proc	_ZNSaI4CellEC1Ev
_ZNSaI4CellEC1Ev:
.LFB4516:
	pushq	%rbp
	.seh_pushreg	%rbp
	movq	%rsp, %rbp
	.seh_setframe	%rbp, 0
	subq	$32, %rsp
	.seh_stackalloc	32
	.seh_endprologue
	movq	%rcx, 16(%rbp)
	movq	16(%rbp), %rcx
	call	_ZN9__gnu_cxx13new_allocatorI4CellEC2Ev
	nop
	addq	$32, %rsp
	popq	%rbp
	ret
	.seh_endproc
	.section	.text$_ZNSaI4CellED2Ev,"x"
	.linkonce discard
	.align 2
	.globl	_ZNSaI4CellED2Ev
	.def	_ZNSaI4CellED2Ev;	.scl	2;	.type	32;	.endef
	.seh_proc	_ZNSaI4CellED2Ev
_ZNSaI4CellED2Ev:
.LFB4518:
	pushq	%rbp
	.seh_pushreg	%rbp
	movq	%rsp, %rbp
	.seh_setframe	%rbp, 0
	subq	$32, %rsp
	.seh_stackalloc	32
	.seh_endprologue
	movq	%rcx, 16(%rbp)
	movq	16(%rbp), %rcx
	call	_ZN9__gnu_cxx13new_allocatorI4CellED2Ev
	nop
	addq	$32, %rsp
	popq	%rbp
	ret
	.seh_endproc
	.section	.text$_ZNSaI4CellED1Ev,"x"
	.linkonce discard
	.align 2
	.globl	_ZNSaI4CellED1Ev
	.def	_ZNSaI4CellED1Ev;	.scl	2;	.type	32;	.endef
	.seh_proc	_ZNSaI4CellED1Ev
_ZNSaI4CellED1Ev:
.LFB4519:
	pushq	%rbp
	.seh_pushreg	%rbp
	movq	%rsp, %rbp
	.seh_setframe	%rbp, 0
	subq	$32, %rsp
	.seh_stackalloc	32
	.seh_endprologue
	movq	%rcx, 16(%rbp)
	movq	16(%rbp), %rcx
	call	_ZN9__gnu_cxx13new_allocatorI4CellED2Ev
	nop
	addq	$32, %rsp
	popq	%rbp
	ret
	.seh_endproc
	.section	.text$_ZNSt6vectorI4CellSaIS0_EEC1EyRKS1_,"x"
	.linkonce discard
	.align 2
	.globl	_ZNSt6vectorI4CellSaIS0_EEC1EyRKS1_
	.def	_ZNSt6vectorI4CellSaIS0_EEC1EyRKS1_;	.scl	2;	.type	32;	.endef
	.seh_proc	_ZNSt6vectorI4CellSaIS0_EEC1EyRKS1_
_ZNSt6vectorI4CellSaIS0_EEC1EyRKS1_:
.LFB4522:
	pushq	%rbp
	.seh_pushreg	%rbp
	pushq	%rbx
	.seh_pushreg	%rbx
	subq	$40, %rsp
	.seh_stackalloc	40
	leaq	128(%rsp), %rbp
	.seh_setframe	%rbp, 128
	.seh_endprologue
	movq	%rcx, -64(%rbp)
	movq	%rdx, -56(%rbp)
	movq	%r8, -48(%rbp)
	movq	-64(%rbp), %rax
	movq	-48(%rbp), %rcx
	movq	-56(%rbp), %rdx
	movq	%rcx, %r8
	movq	%rax, %rcx
.LEHB55:
	call	_ZNSt12_Vector_baseI4CellSaIS0_EEC2EyRKS1_
.LEHE55:
	movq	-56(%rbp), %rax
	movq	%rax, %rdx
	movq	-64(%rbp), %rcx
.LEHB56:
	call	_ZNSt6vectorI4CellSaIS0_EE21_M_default_initializeEy
.LEHE56:
	jmp	.L394
.L393:
	movq	%rax, %rbx
	movq	-64(%rbp), %rax
	movq	%rax, %rcx
	call	_ZNSt12_Vector_baseI4CellSaIS0_EED2Ev
	movq	%rbx, %rax
	movq	%rax, %rcx
.LEHB57:
	call	_Unwind_Resume
	nop
.LEHE57:
.L394:
	addq	$40, %rsp
	popq	%rbx
	popq	%rbp
	ret
	.seh_handler	__gxx_personality_seh0, @unwind, @except
	.seh_handlerdata
.LLSDA4522:
	.byte	0xff
	.byte	0xff
	.byte	0x1
	.uleb128 .LLSDACSE4522-.LLSDACSB4522
.LLSDACSB4522:
	.uleb128 .LEHB55-.LFB4522
	.uleb128 .LEHE55-.LEHB55
	.uleb128 0
	.uleb128 0
	.uleb128 .LEHB56-.LFB4522
	.uleb128 .LEHE56-.LEHB56
	.uleb128 .L393-.LFB4522
	.uleb128 0
	.uleb128 .LEHB57-.LFB4522
	.uleb128 .LEHE57-.LEHB57
	.uleb128 0
	.uleb128 0
.LLSDACSE4522:
	.section	.text$_ZNSt6vectorI4CellSaIS0_EEC1EyRKS1_,"x"
	.linkonce discard
	.seh_endproc
	.section	.text$_ZNSt6vectorI4CellSaIS0_EED1Ev,"x"
	.linkonce discard
	.align 2
	.globl	_ZNSt6vectorI4CellSaIS0_EED1Ev
	.def	_ZNSt6vectorI4CellSaIS0_EED1Ev;	.scl	2;	.type	32;	.endef
	.seh_proc	_ZNSt6vectorI4CellSaIS0_EED1Ev
_ZNSt6vectorI4CellSaIS0_EED1Ev:
.LFB4525:
	pushq	%rbp
	.seh_pushreg	%rbp
	movq	%rsp, %rbp
	.seh_setframe	%rbp, 0
	subq	$32, %rsp
	.seh_stackalloc	32
	.seh_endprologue
	movq	%rcx, 16(%rbp)
	movq	16(%rbp), %rax
	movq	%rax, %rcx
	call	_ZNSt12_Vector_baseI4CellSaIS0_EE19_M_get_Tp_allocatorEv
	movq	%rax, %rcx
	movq	16(%rbp), %rax
	movq	8(%rax), %rdx
	movq	16(%rbp), %rax
	movq	(%rax), %rax
	movq	%rcx, %r8
	movq	%rax, %rcx
	call	_ZSt8_DestroyIP4CellS0_EvT_S2_RSaIT0_E
	movq	16(%rbp), %rax
	movq	%rax, %rcx
	call	_ZNSt12_Vector_baseI4CellSaIS0_EED2Ev
	nop
	addq	$32, %rsp
	popq	%rbp
	ret
	.seh_handler	__gxx_personality_seh0, @unwind, @except
	.seh_handlerdata
.LLSDA4525:
	.byte	0xff
	.byte	0xff
	.byte	0x1
	.uleb128 .LLSDACSE4525-.LLSDACSB4525
.LLSDACSB4525:
.LLSDACSE4525:
	.section	.text$_ZNSt6vectorI4CellSaIS0_EED1Ev,"x"
	.linkonce discard
	.seh_endproc
	.section	.text$_ZNSaISt6vectorI4CellSaIS0_EEEC1Ev,"x"
	.linkonce discard
	.align 2
	.globl	_ZNSaISt6vectorI4CellSaIS0_EEEC1Ev
	.def	_ZNSaISt6vectorI4CellSaIS0_EEEC1Ev;	.scl	2;	.type	32;	.endef
	.seh_proc	_ZNSaISt6vectorI4CellSaIS0_EEEC1Ev
_ZNSaISt6vectorI4CellSaIS0_EEEC1Ev:
.LFB4528:
	pushq	%rbp
	.seh_pushreg	%rbp
	movq	%rsp, %rbp
	.seh_setframe	%rbp, 0
	subq	$32, %rsp
	.seh_stackalloc	32
	.seh_endprologue
	movq	%rcx, 16(%rbp)
	movq	16(%rbp), %rcx
	call	_ZN9__gnu_cxx13new_allocatorISt6vectorI4CellSaIS2_EEEC2Ev
	nop
	addq	$32, %rsp
	popq	%rbp
	ret
	.seh_endproc
	.section	.text$_ZNSaISt6vectorI4CellSaIS0_EEED2Ev,"x"
	.linkonce discard
	.align 2
	.globl	_ZNSaISt6vectorI4CellSaIS0_EEED2Ev
	.def	_ZNSaISt6vectorI4CellSaIS0_EEED2Ev;	.scl	2;	.type	32;	.endef
	.seh_proc	_ZNSaISt6vectorI4CellSaIS0_EEED2Ev
_ZNSaISt6vectorI4CellSaIS0_EEED2Ev:
.LFB4530:
	pushq	%rbp
	.seh_pushreg	%rbp
	movq	%rsp, %rbp
	.seh_setframe	%rbp, 0
	subq	$32, %rsp
	.seh_stackalloc	32
	.seh_endprologue
	movq	%rcx, 16(%rbp)
	movq	16(%rbp), %rcx
	call	_ZN9__gnu_cxx13new_allocatorISt6vectorI4CellSaIS2_EEED2Ev
	nop
	addq	$32, %rsp
	popq	%rbp
	ret
	.seh_endproc
	.section	.text$_ZNSaISt6vectorI4CellSaIS0_EEED1Ev,"x"
	.linkonce discard
	.align 2
	.globl	_ZNSaISt6vectorI4CellSaIS0_EEED1Ev
	.def	_ZNSaISt6vectorI4CellSaIS0_EEED1Ev;	.scl	2;	.type	32;	.endef
	.seh_proc	_ZNSaISt6vectorI4CellSaIS0_EEED1Ev
_ZNSaISt6vectorI4CellSaIS0_EEED1Ev:
.LFB4531:
	pushq	%rbp
	.seh_pushreg	%rbp
	movq	%rsp, %rbp
	.seh_setframe	%rbp, 0
	subq	$32, %rsp
	.seh_stackalloc	32
	.seh_endprologue
	movq	%rcx, 16(%rbp)
	movq	16(%rbp), %rcx
	call	_ZN9__gnu_cxx13new_allocatorISt6vectorI4CellSaIS2_EEED2Ev
	nop
	addq	$32, %rsp
	popq	%rbp
	ret
	.seh_endproc
	.section	.text$_ZNSt6vectorIS_I4CellSaIS0_EESaIS2_EEC1EyRKS2_RKS3_,"x"
	.linkonce discard
	.align 2
	.globl	_ZNSt6vectorIS_I4CellSaIS0_EESaIS2_EEC1EyRKS2_RKS3_
	.def	_ZNSt6vectorIS_I4CellSaIS0_EESaIS2_EEC1EyRKS2_RKS3_;	.scl	2;	.type	32;	.endef
	.seh_proc	_ZNSt6vectorIS_I4CellSaIS0_EESaIS2_EEC1EyRKS2_RKS3_
_ZNSt6vectorIS_I4CellSaIS0_EESaIS2_EEC1EyRKS2_RKS3_:
.LFB4534:
	pushq	%rbp
	.seh_pushreg	%rbp
	pushq	%rbx
	.seh_pushreg	%rbx
	subq	$40, %rsp
	.seh_stackalloc	40
	leaq	128(%rsp), %rbp
	.seh_setframe	%rbp, 128
	.seh_endprologue
	movq	%rcx, -64(%rbp)
	movq	%rdx, -56(%rbp)
	movq	%r8, -48(%rbp)
	movq	%r9, -40(%rbp)
	movq	-64(%rbp), %rax
	movq	-40(%rbp), %rcx
	movq	-56(%rbp), %rdx
	movq	%rcx, %r8
	movq	%rax, %rcx
.LEHB58:
	call	_ZNSt12_Vector_baseISt6vectorI4CellSaIS1_EESaIS3_EEC2EyRKS4_
.LEHE58:
	movq	-48(%rbp), %rdx
	movq	-56(%rbp), %rax
	movq	%rdx, %r8
	movq	%rax, %rdx
	movq	-64(%rbp), %rcx
.LEHB59:
	call	_ZNSt6vectorIS_I4CellSaIS0_EESaIS2_EE18_M_fill_initializeEyRKS2_
.LEHE59:
	jmp	.L402
.L401:
	movq	%rax, %rbx
	movq	-64(%rbp), %rax
	movq	%rax, %rcx
	call	_ZNSt12_Vector_baseISt6vectorI4CellSaIS1_EESaIS3_EED2Ev
	movq	%rbx, %rax
	movq	%rax, %rcx
.LEHB60:
	call	_Unwind_Resume
	nop
.LEHE60:
.L402:
	addq	$40, %rsp
	popq	%rbx
	popq	%rbp
	ret
	.seh_handler	__gxx_personality_seh0, @unwind, @except
	.seh_handlerdata
.LLSDA4534:
	.byte	0xff
	.byte	0xff
	.byte	0x1
	.uleb128 .LLSDACSE4534-.LLSDACSB4534
.LLSDACSB4534:
	.uleb128 .LEHB58-.LFB4534
	.uleb128 .LEHE58-.LEHB58
	.uleb128 0
	.uleb128 0
	.uleb128 .LEHB59-.LFB4534
	.uleb128 .LEHE59-.LEHB59
	.uleb128 .L401-.LFB4534
	.uleb128 0
	.uleb128 .LEHB60-.LFB4534
	.uleb128 .LEHE60-.LEHB60
	.uleb128 0
	.uleb128 0
.LLSDACSE4534:
	.section	.text$_ZNSt6vectorIS_I4CellSaIS0_EESaIS2_EEC1EyRKS2_RKS3_,"x"
	.linkonce discard
	.seh_endproc
	.section	.text$_ZNSt7__cxx1112basic_stringIjSt11char_traitsIjESaIjEE12_Alloc_hiderD1Ev,"x"
	.linkonce discard
	.align 2
	.globl	_ZNSt7__cxx1112basic_stringIjSt11char_traitsIjESaIjEE12_Alloc_hiderD1Ev
	.def	_ZNSt7__cxx1112basic_stringIjSt11char_traitsIjESaIjEE12_Alloc_hiderD1Ev;	.scl	2;	.type	32;	.endef
	.seh_proc	_ZNSt7__cxx1112basic_stringIjSt11char_traitsIjESaIjEE12_Alloc_hiderD1Ev
_ZNSt7__cxx1112basic_stringIjSt11char_traitsIjESaIjEE12_Alloc_hiderD1Ev:
.LFB4541:
	pushq	%rbp
	.seh_pushreg	%rbp
	movq	%rsp, %rbp
	.seh_setframe	%rbp, 0
	subq	$32, %rsp
	.seh_stackalloc	32
	.seh_endprologue
	movq	%rcx, 16(%rbp)
	movq	16(%rbp), %rcx
	call	_ZNSaIjED2Ev
	nop
	addq	$32, %rsp
	popq	%rbp
	ret
	.seh_endproc
	.section	.text$_ZNSt7__cxx1112basic_stringIjSt11char_traitsIjESaIjEED1Ev,"x"
	.linkonce discard
	.align 2
	.globl	_ZNSt7__cxx1112basic_stringIjSt11char_traitsIjESaIjEED1Ev
	.def	_ZNSt7__cxx1112basic_stringIjSt11char_traitsIjESaIjEED1Ev;	.scl	2;	.type	32;	.endef
	.seh_proc	_ZNSt7__cxx1112basic_stringIjSt11char_traitsIjESaIjEED1Ev
_ZNSt7__cxx1112basic_stringIjSt11char_traitsIjESaIjEED1Ev:
.LFB4543:
	pushq	%rbp
	.seh_pushreg	%rbp
	movq	%rsp, %rbp
	.seh_setframe	%rbp, 0
	subq	$32, %rsp
	.seh_stackalloc	32
	.seh_endprologue
	movq	%rcx, 16(%rbp)
	movq	16(%rbp), %rcx
	call	_ZNSt7__cxx1112basic_stringIjSt11char_traitsIjESaIjEE10_M_disposeEv
	movq	16(%rbp), %rax
	movq	%rax, %rcx
	call	_ZNSt7__cxx1112basic_stringIjSt11char_traitsIjESaIjEE12_Alloc_hiderD1Ev
	nop
	addq	$32, %rsp
	popq	%rbp
	ret
	.seh_handler	__gxx_personality_seh0, @unwind, @except
	.seh_handlerdata
.LLSDA4543:
	.byte	0xff
	.byte	0xff
	.byte	0x1
	.uleb128 .LLSDACSE4543-.LLSDACSB4543
.LLSDACSB4543:
.LLSDACSE4543:
	.section	.text$_ZNSt7__cxx1112basic_stringIjSt11char_traitsIjESaIjEED1Ev,"x"
	.linkonce discard
	.seh_endproc
	.section	.text$_ZN2sf7Vector2IfEC1IiEERKNS0_IT_EE,"x"
	.linkonce discard
	.align 2
	.globl	_ZN2sf7Vector2IfEC1IiEERKNS0_IT_EE
	.def	_ZN2sf7Vector2IfEC1IiEERKNS0_IT_EE;	.scl	2;	.type	32;	.endef
	.seh_proc	_ZN2sf7Vector2IfEC1IiEERKNS0_IT_EE
_ZN2sf7Vector2IfEC1IiEERKNS0_IT_EE:
.LFB4546:
	pushq	%rbp
	.seh_pushreg	%rbp
	movq	%rsp, %rbp
	.seh_setframe	%rbp, 0
	.seh_endprologue
	movq	%rcx, 16(%rbp)
	movq	%rdx, 24(%rbp)
	movq	24(%rbp), %rax
	movl	(%rax), %eax
	cvtsi2ss	%eax, %xmm0
	movq	16(%rbp), %rax
	movss	%xmm0, (%rax)
	movq	24(%rbp), %rax
	movl	4(%rax), %eax
	cvtsi2ss	%eax, %xmm0
	movq	16(%rbp), %rax
	movss	%xmm0, 4(%rax)
	nop
	popq	%rbp
	ret
	.seh_endproc
	.section	.text$_ZNSt14__array_traitsIiLy2EE6_S_refERA2_Kiy,"x"
	.linkonce discard
	.globl	_ZNSt14__array_traitsIiLy2EE6_S_refERA2_Kiy
	.def	_ZNSt14__array_traitsIiLy2EE6_S_refERA2_Kiy;	.scl	2;	.type	32;	.endef
	.seh_proc	_ZNSt14__array_traitsIiLy2EE6_S_refERA2_Kiy
_ZNSt14__array_traitsIiLy2EE6_S_refERA2_Kiy:
.LFB4660:
	pushq	%rbp
	.seh_pushreg	%rbp
	movq	%rsp, %rbp
	.seh_setframe	%rbp, 0
	.seh_endprologue
	movq	%rcx, 16(%rbp)
	movq	%rdx, 24(%rbp)
	movq	24(%rbp), %rax
	leaq	0(,%rax,4), %rdx
	movq	16(%rbp), %rax
	addq	%rdx, %rax
	popq	%rbp
	ret
	.seh_endproc
	.section	.text$_ZNSt16_Sp_counted_baseILN9__gnu_cxx12_Lock_policyE2EE10_M_releaseEv,"x"
	.linkonce discard
	.align 2
	.globl	_ZNSt16_Sp_counted_baseILN9__gnu_cxx12_Lock_policyE2EE10_M_releaseEv
	.def	_ZNSt16_Sp_counted_baseILN9__gnu_cxx12_Lock_policyE2EE10_M_releaseEv;	.scl	2;	.type	32;	.endef
	.seh_proc	_ZNSt16_Sp_counted_baseILN9__gnu_cxx12_Lock_policyE2EE10_M_releaseEv
_ZNSt16_Sp_counted_baseILN9__gnu_cxx12_Lock_policyE2EE10_M_releaseEv:
.LFB4661:
	pushq	%rbp
	.seh_pushreg	%rbp
	movq	%rsp, %rbp
	.seh_setframe	%rbp, 0
	subq	$32, %rsp
	.seh_stackalloc	32
	.seh_endprologue
	movq	%rcx, 16(%rbp)
	movq	16(%rbp), %rax
	addq	$8, %rax
	movl	$-1, %edx
	movq	%rax, %rcx
	call	_ZN9__gnu_cxxL27__exchange_and_add_dispatchEPii
	cmpl	$1, %eax
	sete	%al
	testb	%al, %al
	je	.L410
	movq	16(%rbp), %rax
	movq	(%rax), %rax
	addq	$16, %rax
	movq	(%rax), %rax
	movq	16(%rbp), %rcx
	call	*%rax
	movq	16(%rbp), %rax
	addq	$12, %rax
	movl	$-1, %edx
	movq	%rax, %rcx
	call	_ZN9__gnu_cxxL27__exchange_and_add_dispatchEPii
	cmpl	$1, %eax
	sete	%al
	testb	%al, %al
	je	.L410
	movq	16(%rbp), %rax
	movq	(%rax), %rax
	addq	$24, %rax
	movq	(%rax), %rax
	movq	16(%rbp), %rcx
	call	*%rax
.L410:
	nop
	addq	$32, %rsp
	popq	%rbp
	ret
	.seh_endproc
	.section	.text$_ZN9__gnu_cxxeqIPKSt5arrayIfLy3EESt6vectorIS2_SaIS2_EEEEbRKNS_17__normal_iteratorIT_T0_EESD_,"x"
	.linkonce discard
	.globl	_ZN9__gnu_cxxeqIPKSt5arrayIfLy3EESt6vectorIS2_SaIS2_EEEEbRKNS_17__normal_iteratorIT_T0_EESD_
	.def	_ZN9__gnu_cxxeqIPKSt5arrayIfLy3EESt6vectorIS2_SaIS2_EEEEbRKNS_17__normal_iteratorIT_T0_EESD_;	.scl	2;	.type	32;	.endef
	.seh_proc	_ZN9__gnu_cxxeqIPKSt5arrayIfLy3EESt6vectorIS2_SaIS2_EEEEbRKNS_17__normal_iteratorIT_T0_EESD_
_ZN9__gnu_cxxeqIPKSt5arrayIfLy3EESt6vectorIS2_SaIS2_EEEEbRKNS_17__normal_iteratorIT_T0_EESD_:
.LFB4662:
	pushq	%rbp
	.seh_pushreg	%rbp
	pushq	%rbx
	.seh_pushreg	%rbx
	subq	$40, %rsp
	.seh_stackalloc	40
	leaq	128(%rsp), %rbp
	.seh_setframe	%rbp, 128
	.seh_endprologue
	movq	%rcx, -64(%rbp)
	movq	%rdx, -56(%rbp)
	movq	-64(%rbp), %rcx
	call	_ZNK9__gnu_cxx17__normal_iteratorIPKSt5arrayIfLy3EESt6vectorIS2_SaIS2_EEE4baseEv
	movq	(%rax), %rbx
	movq	-56(%rbp), %rax
	movq	%rax, %rcx
	call	_ZNK9__gnu_cxx17__normal_iteratorIPKSt5arrayIfLy3EESt6vectorIS2_SaIS2_EEE4baseEv
	movq	(%rax), %rax
	cmpq	%rax, %rbx
	sete	%al
	addq	$40, %rsp
	popq	%rbx
	popq	%rbp
	ret
	.seh_endproc
	.section	.text$_ZN9__gnu_cxx13new_allocatorIN2sf6VertexEEC2Ev,"x"
	.linkonce discard
	.align 2
	.globl	_ZN9__gnu_cxx13new_allocatorIN2sf6VertexEEC2Ev
	.def	_ZN9__gnu_cxx13new_allocatorIN2sf6VertexEEC2Ev;	.scl	2;	.type	32;	.endef
	.seh_proc	_ZN9__gnu_cxx13new_allocatorIN2sf6VertexEEC2Ev
_ZN9__gnu_cxx13new_allocatorIN2sf6VertexEEC2Ev:
.LFB4664:
	pushq	%rbp
	.seh_pushreg	%rbp
	movq	%rsp, %rbp
	.seh_setframe	%rbp, 0
	.seh_endprologue
	movq	%rcx, 16(%rbp)
	nop
	popq	%rbp
	ret
	.seh_endproc
	.section	.text$_ZN9__gnu_cxx13new_allocatorIN2sf6VertexEED2Ev,"x"
	.linkonce discard
	.align 2
	.globl	_ZN9__gnu_cxx13new_allocatorIN2sf6VertexEED2Ev
	.def	_ZN9__gnu_cxx13new_allocatorIN2sf6VertexEED2Ev;	.scl	2;	.type	32;	.endef
	.seh_proc	_ZN9__gnu_cxx13new_allocatorIN2sf6VertexEED2Ev
_ZN9__gnu_cxx13new_allocatorIN2sf6VertexEED2Ev:
.LFB4667:
	pushq	%rbp
	.seh_pushreg	%rbp
	movq	%rsp, %rbp
	.seh_setframe	%rbp, 0
	.seh_endprologue
	movq	%rcx, 16(%rbp)
	nop
	popq	%rbp
	ret
	.seh_endproc
	.section	.text$_ZNSt12_Vector_baseIN2sf6VertexESaIS1_EE12_Vector_implD1Ev,"x"
	.linkonce discard
	.align 2
	.globl	_ZNSt12_Vector_baseIN2sf6VertexESaIS1_EE12_Vector_implD1Ev
	.def	_ZNSt12_Vector_baseIN2sf6VertexESaIS1_EE12_Vector_implD1Ev;	.scl	2;	.type	32;	.endef
	.seh_proc	_ZNSt12_Vector_baseIN2sf6VertexESaIS1_EE12_Vector_implD1Ev
_ZNSt12_Vector_baseIN2sf6VertexESaIS1_EE12_Vector_implD1Ev:
.LFB4672:
	pushq	%rbp
	.seh_pushreg	%rbp
	movq	%rsp, %rbp
	.seh_setframe	%rbp, 0
	subq	$32, %rsp
	.seh_stackalloc	32
	.seh_endprologue
	movq	%rcx, 16(%rbp)
	movq	16(%rbp), %rcx
	call	_ZNSaIN2sf6VertexEED2Ev
	nop
	addq	$32, %rsp
	popq	%rbp
	ret
	.seh_endproc
	.section	.text$_ZNSt12_Vector_baseIN2sf6VertexESaIS1_EEC2ERKS2_,"x"
	.linkonce discard
	.align 2
	.globl	_ZNSt12_Vector_baseIN2sf6VertexESaIS1_EEC2ERKS2_
	.def	_ZNSt12_Vector_baseIN2sf6VertexESaIS1_EEC2ERKS2_;	.scl	2;	.type	32;	.endef
	.seh_proc	_ZNSt12_Vector_baseIN2sf6VertexESaIS1_EEC2ERKS2_
_ZNSt12_Vector_baseIN2sf6VertexESaIS1_EEC2ERKS2_:
.LFB4673:
	pushq	%rbp
	.seh_pushreg	%rbp
	movq	%rsp, %rbp
	.seh_setframe	%rbp, 0
	subq	$32, %rsp
	.seh_stackalloc	32
	.seh_endprologue
	movq	%rcx, 16(%rbp)
	movq	%rdx, 24(%rbp)
	movq	16(%rbp), %rax
	movq	24(%rbp), %rdx
	movq	%rax, %rcx
	call	_ZNSt12_Vector_baseIN2sf6VertexESaIS1_EE12_Vector_implC1ERKS2_
	nop
	addq	$32, %rsp
	popq	%rbp
	ret
	.seh_endproc
	.section	.text$_ZNSt12_Vector_baseIN2sf6VertexESaIS1_EED2Ev,"x"
	.linkonce discard
	.align 2
	.globl	_ZNSt12_Vector_baseIN2sf6VertexESaIS1_EED2Ev
	.def	_ZNSt12_Vector_baseIN2sf6VertexESaIS1_EED2Ev;	.scl	2;	.type	32;	.endef
	.seh_proc	_ZNSt12_Vector_baseIN2sf6VertexESaIS1_EED2Ev
_ZNSt12_Vector_baseIN2sf6VertexESaIS1_EED2Ev:
.LFB4676:
	pushq	%rbp
	.seh_pushreg	%rbp
	movq	%rsp, %rbp
	.seh_setframe	%rbp, 0
	subq	$32, %rsp
	.seh_stackalloc	32
	.seh_endprologue
	movq	%rcx, 16(%rbp)
	movq	16(%rbp), %rax
	movq	16(%rax), %rdx
	movq	16(%rbp), %rax
	movq	(%rax), %rax
	subq	%rax, %rdx
	movq	%rdx, %rax
	sarq	$2, %rax
	movq	%rax, %rdx
	movabsq	$-3689348814741910323, %rax
	imulq	%rdx, %rax
	movq	%rax, %rdx
	movq	16(%rbp), %rax
	movq	(%rax), %rax
	movq	%rdx, %r8
	movq	%rax, %rdx
	movq	16(%rbp), %rcx
	call	_ZNSt12_Vector_baseIN2sf6VertexESaIS1_EE13_M_deallocateEPS1_y
	movq	16(%rbp), %rax
	movq	%rax, %rcx
	call	_ZNSt12_Vector_baseIN2sf6VertexESaIS1_EE12_Vector_implD1Ev
	nop
	addq	$32, %rsp
	popq	%rbp
	ret
	.seh_handler	__gxx_personality_seh0, @unwind, @except
	.seh_handlerdata
.LLSDA4676:
	.byte	0xff
	.byte	0xff
	.byte	0x1
	.uleb128 .LLSDACSE4676-.LLSDACSB4676
.LLSDACSB4676:
.LLSDACSE4676:
	.section	.text$_ZNSt12_Vector_baseIN2sf6VertexESaIS1_EED2Ev,"x"
	.linkonce discard
	.seh_endproc
	.section	.text$_ZNKSt16initializer_listIN2sf6VertexEE5beginEv,"x"
	.linkonce discard
	.align 2
	.globl	_ZNKSt16initializer_listIN2sf6VertexEE5beginEv
	.def	_ZNKSt16initializer_listIN2sf6VertexEE5beginEv;	.scl	2;	.type	32;	.endef
	.seh_proc	_ZNKSt16initializer_listIN2sf6VertexEE5beginEv
_ZNKSt16initializer_listIN2sf6VertexEE5beginEv:
.LFB4678:
	pushq	%rbp
	.seh_pushreg	%rbp
	movq	%rsp, %rbp
	.seh_setframe	%rbp, 0
	.seh_endprologue
	movq	%rcx, 16(%rbp)
	movq	16(%rbp), %rax
	movq	(%rax), %rax
	popq	%rbp
	ret
	.seh_endproc
	.section	.text$_ZNKSt16initializer_listIN2sf6VertexEE3endEv,"x"
	.linkonce discard
	.align 2
	.globl	_ZNKSt16initializer_listIN2sf6VertexEE3endEv
	.def	_ZNKSt16initializer_listIN2sf6VertexEE3endEv;	.scl	2;	.type	32;	.endef
	.seh_proc	_ZNKSt16initializer_listIN2sf6VertexEE3endEv
_ZNKSt16initializer_listIN2sf6VertexEE3endEv:
.LFB4679:
	pushq	%rbp
	.seh_pushreg	%rbp
	pushq	%rbx
	.seh_pushreg	%rbx
	subq	$40, %rsp
	.seh_stackalloc	40
	leaq	128(%rsp), %rbp
	.seh_setframe	%rbp, 128
	.seh_endprologue
	movq	%rcx, -64(%rbp)
	movq	-64(%rbp), %rcx
	call	_ZNKSt16initializer_listIN2sf6VertexEE5beginEv
	movq	%rax, %rbx
	movq	-64(%rbp), %rcx
	call	_ZNKSt16initializer_listIN2sf6VertexEE4sizeEv
	movq	%rax, %rdx
	movq	%rdx, %rax
	salq	$2, %rax
	addq	%rdx, %rax
	salq	$2, %rax
	addq	%rbx, %rax
	addq	$40, %rsp
	popq	%rbx
	popq	%rbp
	ret
	.seh_endproc
	.section	.text$_ZNSt6vectorIN2sf6VertexESaIS1_EE19_M_range_initializeIPKS1_EEvT_S7_St20forward_iterator_tag,"x"
	.linkonce discard
	.align 2
	.globl	_ZNSt6vectorIN2sf6VertexESaIS1_EE19_M_range_initializeIPKS1_EEvT_S7_St20forward_iterator_tag
	.def	_ZNSt6vectorIN2sf6VertexESaIS1_EE19_M_range_initializeIPKS1_EEvT_S7_St20forward_iterator_tag;	.scl	2;	.type	32;	.endef
	.seh_proc	_ZNSt6vectorIN2sf6VertexESaIS1_EE19_M_range_initializeIPKS1_EEvT_S7_St20forward_iterator_tag
_ZNSt6vectorIN2sf6VertexESaIS1_EE19_M_range_initializeIPKS1_EEvT_S7_St20forward_iterator_tag:
.LFB4680:
	pushq	%rbp
	.seh_pushreg	%rbp
	movq	%rsp, %rbp
	.seh_setframe	%rbp, 0
	subq	$48, %rsp
	.seh_stackalloc	48
	.seh_endprologue
	movq	%rcx, 16(%rbp)
	movq	%rdx, 24(%rbp)
	movq	%r8, 32(%rbp)
	movb	%r9b, 40(%rbp)
	movq	32(%rbp), %rdx
	movq	24(%rbp), %rax
	movq	%rax, %rcx
	call	_ZSt8distanceIPKN2sf6VertexEENSt15iterator_traitsIT_E15difference_typeES5_S5_
	movq	%rax, -8(%rbp)
	movq	16(%rbp), %rax
	movq	-8(%rbp), %rdx
	movq	%rax, %rcx
	call	_ZNSt12_Vector_baseIN2sf6VertexESaIS1_EE11_M_allocateEy
	movq	%rax, %rdx
	movq	16(%rbp), %rax
	movq	%rdx, (%rax)
	movq	16(%rbp), %rax
	movq	(%rax), %rcx
	movq	-8(%rbp), %rdx
	movq	%rdx, %rax
	salq	$2, %rax
	addq	%rdx, %rax
	salq	$2, %rax
	leaq	(%rcx,%rax), %rdx
	movq	16(%rbp), %rax
	movq	%rdx, 16(%rax)
	movq	16(%rbp), %rax
	movq	%rax, %rcx
	call	_ZNSt12_Vector_baseIN2sf6VertexESaIS1_EE19_M_get_Tp_allocatorEv
	movq	%rax, %r8
	movq	16(%rbp), %rax
	movq	(%rax), %rcx
	movq	32(%rbp), %rdx
	movq	24(%rbp), %rax
	movq	%r8, %r9
	movq	%rcx, %r8
	movq	%rax, %rcx
	call	_ZSt22__uninitialized_copy_aIPKN2sf6VertexEPS1_S1_ET0_T_S6_S5_RSaIT1_E
	movq	%rax, %rdx
	movq	16(%rbp), %rax
	movq	%rdx, 8(%rax)
	nop
	addq	$48, %rsp
	popq	%rbp
	ret
	.seh_endproc
	.section	.text$_ZNSt12_Vector_baseIN2sf6VertexESaIS1_EE19_M_get_Tp_allocatorEv,"x"
	.linkonce discard
	.align 2
	.globl	_ZNSt12_Vector_baseIN2sf6VertexESaIS1_EE19_M_get_Tp_allocatorEv
	.def	_ZNSt12_Vector_baseIN2sf6VertexESaIS1_EE19_M_get_Tp_allocatorEv;	.scl	2;	.type	32;	.endef
	.seh_proc	_ZNSt12_Vector_baseIN2sf6VertexESaIS1_EE19_M_get_Tp_allocatorEv
_ZNSt12_Vector_baseIN2sf6VertexESaIS1_EE19_M_get_Tp_allocatorEv:
.LFB4681:
	pushq	%rbp
	.seh_pushreg	%rbp
	movq	%rsp, %rbp
	.seh_setframe	%rbp, 0
	.seh_endprologue
	movq	%rcx, 16(%rbp)
	movq	16(%rbp), %rax
	popq	%rbp
	ret
	.seh_endproc
	.section	.text$_ZSt8_DestroyIPN2sf6VertexES1_EvT_S3_RSaIT0_E,"x"
	.linkonce discard
	.globl	_ZSt8_DestroyIPN2sf6VertexES1_EvT_S3_RSaIT0_E
	.def	_ZSt8_DestroyIPN2sf6VertexES1_EvT_S3_RSaIT0_E;	.scl	2;	.type	32;	.endef
	.seh_proc	_ZSt8_DestroyIPN2sf6VertexES1_EvT_S3_RSaIT0_E
_ZSt8_DestroyIPN2sf6VertexES1_EvT_S3_RSaIT0_E:
.LFB4682:
	pushq	%rbp
	.seh_pushreg	%rbp
	movq	%rsp, %rbp
	.seh_setframe	%rbp, 0
	subq	$32, %rsp
	.seh_stackalloc	32
	.seh_endprologue
	movq	%rcx, 16(%rbp)
	movq	%rdx, 24(%rbp)
	movq	%r8, 32(%rbp)
	movq	24(%rbp), %rax
	movq	%rax, %rdx
	movq	16(%rbp), %rcx
	call	_ZSt8_DestroyIPN2sf6VertexEEvT_S3_
	nop
	addq	$32, %rsp
	popq	%rbp
	ret
	.seh_endproc
	.section	.text$_ZNKSt6vectorIN2sf6VertexESaIS1_EE8max_sizeEv,"x"
	.linkonce discard
	.align 2
	.globl	_ZNKSt6vectorIN2sf6VertexESaIS1_EE8max_sizeEv
	.def	_ZNKSt6vectorIN2sf6VertexESaIS1_EE8max_sizeEv;	.scl	2;	.type	32;	.endef
	.seh_proc	_ZNKSt6vectorIN2sf6VertexESaIS1_EE8max_sizeEv
_ZNKSt6vectorIN2sf6VertexESaIS1_EE8max_sizeEv:
.LFB4683:
	pushq	%rbp
	.seh_pushreg	%rbp
	movq	%rsp, %rbp
	.seh_setframe	%rbp, 0
	subq	$32, %rsp
	.seh_stackalloc	32
	.seh_endprologue
	movq	%rcx, 16(%rbp)
	movq	16(%rbp), %rax
	movq	%rax, %rcx
	call	_ZNKSt12_Vector_baseIN2sf6VertexESaIS1_EE19_M_get_Tp_allocatorEv
	movq	%rax, %rcx
	call	_ZNSt16allocator_traitsISaIN2sf6VertexEEE8max_sizeERKS2_
	addq	$32, %rsp
	popq	%rbp
	ret
	.seh_endproc
	.section	.text$_ZNKSt6vectorIN2sf6VertexESaIS1_EE8capacityEv,"x"
	.linkonce discard
	.align 2
	.globl	_ZNKSt6vectorIN2sf6VertexESaIS1_EE8capacityEv
	.def	_ZNKSt6vectorIN2sf6VertexESaIS1_EE8capacityEv;	.scl	2;	.type	32;	.endef
	.seh_proc	_ZNKSt6vectorIN2sf6VertexESaIS1_EE8capacityEv
_ZNKSt6vectorIN2sf6VertexESaIS1_EE8capacityEv:
.LFB4684:
	pushq	%rbp
	.seh_pushreg	%rbp
	movq	%rsp, %rbp
	.seh_setframe	%rbp, 0
	.seh_endprologue
	movq	%rcx, 16(%rbp)
	movq	16(%rbp), %rax
	movq	16(%rax), %rdx
	movq	16(%rbp), %rax
	movq	(%rax), %rax
	subq	%rax, %rdx
	movq	%rdx, %rax
	sarq	$2, %rax
	movq	%rax, %rdx
	movabsq	$-3689348814741910323, %rax
	imulq	%rdx, %rax
	popq	%rbp
	ret
	.seh_endproc
	.section	.text$_ZSt32__make_move_if_noexcept_iteratorIN2sf6VertexESt13move_iteratorIPS1_EET0_PT_,"x"
	.linkonce discard
	.globl	_ZSt32__make_move_if_noexcept_iteratorIN2sf6VertexESt13move_iteratorIPS1_EET0_PT_
	.def	_ZSt32__make_move_if_noexcept_iteratorIN2sf6VertexESt13move_iteratorIPS1_EET0_PT_;	.scl	2;	.type	32;	.endef
	.seh_proc	_ZSt32__make_move_if_noexcept_iteratorIN2sf6VertexESt13move_iteratorIPS1_EET0_PT_
_ZSt32__make_move_if_noexcept_iteratorIN2sf6VertexESt13move_iteratorIPS1_EET0_PT_:
.LFB4685:
	pushq	%rbp
	.seh_pushreg	%rbp
	movq	%rsp, %rbp
	.seh_setframe	%rbp, 0
	subq	$48, %rsp
	.seh_stackalloc	48
	.seh_endprologue
	movq	%rcx, 16(%rbp)
	leaq	-8(%rbp), %rax
	movq	16(%rbp), %rdx
	movq	%rax, %rcx
	call	_ZNSt13move_iteratorIPN2sf6VertexEEC1ES2_
	movq	-8(%rbp), %rax
	addq	$48, %rsp
	popq	%rbp
	ret
	.seh_endproc
	.section	.text$_ZNSt6vectorIN2sf6VertexESaIS1_EE20_M_allocate_and_copyISt13move_iteratorIPS1_EEES6_yT_S8_,"x"
	.linkonce discard
	.align 2
	.globl	_ZNSt6vectorIN2sf6VertexESaIS1_EE20_M_allocate_and_copyISt13move_iteratorIPS1_EEES6_yT_S8_
	.def	_ZNSt6vectorIN2sf6VertexESaIS1_EE20_M_allocate_and_copyISt13move_iteratorIPS1_EEES6_yT_S8_;	.scl	2;	.type	32;	.endef
	.seh_proc	_ZNSt6vectorIN2sf6VertexESaIS1_EE20_M_allocate_and_copyISt13move_iteratorIPS1_EEES6_yT_S8_
_ZNSt6vectorIN2sf6VertexESaIS1_EE20_M_allocate_and_copyISt13move_iteratorIPS1_EEES6_yT_S8_:
.LFB4686:
	pushq	%rbp
	.seh_pushreg	%rbp
	pushq	%rbx
	.seh_pushreg	%rbx
	subq	$56, %rsp
	.seh_stackalloc	56
	leaq	128(%rsp), %rbp
	.seh_setframe	%rbp, 128
	.seh_endprologue
	movq	%rcx, -48(%rbp)
	movq	%rdx, -40(%rbp)
	movq	%r8, -32(%rbp)
	movq	%r9, -24(%rbp)
	movq	-48(%rbp), %rax
	movq	-40(%rbp), %rdx
	movq	%rax, %rcx
.LEHB61:
	call	_ZNSt12_Vector_baseIN2sf6VertexESaIS1_EE11_M_allocateEy
.LEHE61:
	movq	%rax, -88(%rbp)
	movq	-48(%rbp), %rax
	movq	%rax, %rcx
	call	_ZNSt12_Vector_baseIN2sf6VertexESaIS1_EE19_M_get_Tp_allocatorEv
	movq	%rax, %r8
	movq	-88(%rbp), %rcx
	movq	-24(%rbp), %rdx
	movq	-32(%rbp), %rax
	movq	%r8, %r9
	movq	%rcx, %r8
	movq	%rax, %rcx
.LEHB62:
	call	_ZSt22__uninitialized_copy_aISt13move_iteratorIPN2sf6VertexEES3_S2_ET0_T_S6_S5_RSaIT1_E
.LEHE62:
	movq	-88(%rbp), %rax
	jmp	.L438
.L436:
	movq	%rax, %rcx
	call	__cxa_begin_catch
	movq	-48(%rbp), %rax
	movq	-40(%rbp), %rcx
	movq	-88(%rbp), %rdx
	movq	%rcx, %r8
	movq	%rax, %rcx
.LEHB63:
	call	_ZNSt12_Vector_baseIN2sf6VertexESaIS1_EE13_M_deallocateEPS1_y
	call	__cxa_rethrow
.LEHE63:
.L437:
	movq	%rax, %rbx
	call	__cxa_end_catch
	movq	%rbx, %rax
	movq	%rax, %rcx
.LEHB64:
	call	_Unwind_Resume
.LEHE64:
.L438:
	addq	$56, %rsp
	popq	%rbx
	popq	%rbp
	ret
	.seh_handler	__gxx_personality_seh0, @unwind, @except
	.seh_handlerdata
	.align 4
.LLSDA4686:
	.byte	0xff
	.byte	0x9b
	.uleb128 .LLSDATT4686-.LLSDATTD4686
.LLSDATTD4686:
	.byte	0x1
	.uleb128 .LLSDACSE4686-.LLSDACSB4686
.LLSDACSB4686:
	.uleb128 .LEHB61-.LFB4686
	.uleb128 .LEHE61-.LEHB61
	.uleb128 0
	.uleb128 0
	.uleb128 .LEHB62-.LFB4686
	.uleb128 .LEHE62-.LEHB62
	.uleb128 .L436-.LFB4686
	.uleb128 0x1
	.uleb128 .LEHB63-.LFB4686
	.uleb128 .LEHE63-.LEHB63
	.uleb128 .L437-.LFB4686
	.uleb128 0
	.uleb128 .LEHB64-.LFB4686
	.uleb128 .LEHE64-.LEHB64
	.uleb128 0
	.uleb128 0
.LLSDACSE4686:
	.byte	0x1
	.byte	0
	.align 4
	.long	0

.LLSDATT4686:
	.section	.text$_ZNSt6vectorIN2sf6VertexESaIS1_EE20_M_allocate_and_copyISt13move_iteratorIPS1_EEES6_yT_S8_,"x"
	.linkonce discard
	.seh_endproc
	.section	.text$_ZNSt12_Vector_baseIN2sf6VertexESaIS1_EE13_M_deallocateEPS1_y,"x"
	.linkonce discard
	.align 2
	.globl	_ZNSt12_Vector_baseIN2sf6VertexESaIS1_EE13_M_deallocateEPS1_y
	.def	_ZNSt12_Vector_baseIN2sf6VertexESaIS1_EE13_M_deallocateEPS1_y;	.scl	2;	.type	32;	.endef
	.seh_proc	_ZNSt12_Vector_baseIN2sf6VertexESaIS1_EE13_M_deallocateEPS1_y
_ZNSt12_Vector_baseIN2sf6VertexESaIS1_EE13_M_deallocateEPS1_y:
.LFB4687:
	pushq	%rbp
	.seh_pushreg	%rbp
	movq	%rsp, %rbp
	.seh_setframe	%rbp, 0
	subq	$32, %rsp
	.seh_stackalloc	32
	.seh_endprologue
	movq	%rcx, 16(%rbp)
	movq	%rdx, 24(%rbp)
	movq	%r8, 32(%rbp)
	cmpq	$0, 24(%rbp)
	je	.L441
	movq	16(%rbp), %rax
	movq	32(%rbp), %rcx
	movq	24(%rbp), %rdx
	movq	%rcx, %r8
	movq	%rax, %rcx
	call	_ZNSt16allocator_traitsISaIN2sf6VertexEEE10deallocateERS2_PS1_y
.L441:
	nop
	addq	$32, %rsp
	popq	%rbp
	ret
	.seh_endproc
	.section	.text$_ZN9__gnu_cxx17__normal_iteratorIPKSt5arrayIfLy3EESt6vectorIS2_SaIS2_EEEC1ERKS4_,"x"
	.linkonce discard
	.align 2
	.globl	_ZN9__gnu_cxx17__normal_iteratorIPKSt5arrayIfLy3EESt6vectorIS2_SaIS2_EEEC1ERKS4_
	.def	_ZN9__gnu_cxx17__normal_iteratorIPKSt5arrayIfLy3EESt6vectorIS2_SaIS2_EEEC1ERKS4_;	.scl	2;	.type	32;	.endef
	.seh_proc	_ZN9__gnu_cxx17__normal_iteratorIPKSt5arrayIfLy3EESt6vectorIS2_SaIS2_EEEC1ERKS4_
_ZN9__gnu_cxx17__normal_iteratorIPKSt5arrayIfLy3EESt6vectorIS2_SaIS2_EEEC1ERKS4_:
.LFB4690:
	pushq	%rbp
	.seh_pushreg	%rbp
	movq	%rsp, %rbp
	.seh_setframe	%rbp, 0
	.seh_endprologue
	movq	%rcx, 16(%rbp)
	movq	%rdx, 24(%rbp)
	movq	24(%rbp), %rax
	movq	(%rax), %rdx
	movq	16(%rbp), %rax
	movq	%rdx, (%rax)
	nop
	popq	%rbp
	ret
	.seh_endproc
	.section	.text$_ZNK9__gnu_cxx17__normal_iteratorIPKSt5arrayIfLy3EESt6vectorIS2_SaIS2_EEE4baseEv,"x"
	.linkonce discard
	.align 2
	.globl	_ZNK9__gnu_cxx17__normal_iteratorIPKSt5arrayIfLy3EESt6vectorIS2_SaIS2_EEE4baseEv
	.def	_ZNK9__gnu_cxx17__normal_iteratorIPKSt5arrayIfLy3EESt6vectorIS2_SaIS2_EEE4baseEv;	.scl	2;	.type	32;	.endef
	.seh_proc	_ZNK9__gnu_cxx17__normal_iteratorIPKSt5arrayIfLy3EESt6vectorIS2_SaIS2_EEE4baseEv
_ZNK9__gnu_cxx17__normal_iteratorIPKSt5arrayIfLy3EESt6vectorIS2_SaIS2_EEE4baseEv:
.LFB4691:
	pushq	%rbp
	.seh_pushreg	%rbp
	movq	%rsp, %rbp
	.seh_setframe	%rbp, 0
	.seh_endprologue
	movq	%rcx, 16(%rbp)
	movq	16(%rbp), %rax
	popq	%rbp
	ret
	.seh_endproc
	.section	.text$_ZSt7forwardIN2sf7Vector2IfEEEOT_RNSt16remove_referenceIS3_E4typeE,"x"
	.linkonce discard
	.globl	_ZSt7forwardIN2sf7Vector2IfEEEOT_RNSt16remove_referenceIS3_E4typeE
	.def	_ZSt7forwardIN2sf7Vector2IfEEEOT_RNSt16remove_referenceIS3_E4typeE;	.scl	2;	.type	32;	.endef
	.seh_proc	_ZSt7forwardIN2sf7Vector2IfEEEOT_RNSt16remove_referenceIS3_E4typeE
_ZSt7forwardIN2sf7Vector2IfEEEOT_RNSt16remove_referenceIS3_E4typeE:
.LFB4692:
	pushq	%rbp
	.seh_pushreg	%rbp
	movq	%rsp, %rbp
	.seh_setframe	%rbp, 0
	.seh_endprologue
	movq	%rcx, 16(%rbp)
	movq	16(%rbp), %rax
	popq	%rbp
	ret
	.seh_endproc
	.section	.text$_ZNSt16allocator_traitsISaIN2sf6VertexEEE9constructIS1_JNS0_7Vector2IfEEEEEvRS2_PT_DpOT0_,"x"
	.linkonce discard
	.globl	_ZNSt16allocator_traitsISaIN2sf6VertexEEE9constructIS1_JNS0_7Vector2IfEEEEEvRS2_PT_DpOT0_
	.def	_ZNSt16allocator_traitsISaIN2sf6VertexEEE9constructIS1_JNS0_7Vector2IfEEEEEvRS2_PT_DpOT0_;	.scl	2;	.type	32;	.endef
	.seh_proc	_ZNSt16allocator_traitsISaIN2sf6VertexEEE9constructIS1_JNS0_7Vector2IfEEEEEvRS2_PT_DpOT0_
_ZNSt16allocator_traitsISaIN2sf6VertexEEE9constructIS1_JNS0_7Vector2IfEEEEEvRS2_PT_DpOT0_:
.LFB4693:
	pushq	%rbp
	.seh_pushreg	%rbp
	movq	%rsp, %rbp
	.seh_setframe	%rbp, 0
	subq	$32, %rsp
	.seh_stackalloc	32
	.seh_endprologue
	movq	%rcx, 16(%rbp)
	movq	%rdx, 24(%rbp)
	movq	%r8, 32(%rbp)
	movq	32(%rbp), %rax
	movq	%rax, %rcx
	call	_ZSt7forwardIN2sf7Vector2IfEEEOT_RNSt16remove_referenceIS3_E4typeE
	movq	%rax, %rdx
	movq	24(%rbp), %rax
	movq	%rdx, %r8
	movq	%rax, %rdx
	movq	16(%rbp), %rcx
	call	_ZN9__gnu_cxx13new_allocatorIN2sf6VertexEE9constructIS2_JNS1_7Vector2IfEEEEEvPT_DpOT0_
	nop
	addq	$32, %rsp
	popq	%rbp
	ret
	.seh_endproc
	.section	.text$_ZNSt6vectorIN2sf6VertexESaIS1_EE3endEv,"x"
	.linkonce discard
	.align 2
	.globl	_ZNSt6vectorIN2sf6VertexESaIS1_EE3endEv
	.def	_ZNSt6vectorIN2sf6VertexESaIS1_EE3endEv;	.scl	2;	.type	32;	.endef
	.seh_proc	_ZNSt6vectorIN2sf6VertexESaIS1_EE3endEv
_ZNSt6vectorIN2sf6VertexESaIS1_EE3endEv:
.LFB4694:
	pushq	%rbp
	.seh_pushreg	%rbp
	movq	%rsp, %rbp
	.seh_setframe	%rbp, 0
	subq	$48, %rsp
	.seh_stackalloc	48
	.seh_endprologue
	movq	%rcx, 16(%rbp)
	movq	16(%rbp), %rax
	leaq	8(%rax), %rdx
	leaq	-8(%rbp), %rax
	movq	%rax, %rcx
	call	_ZN9__gnu_cxx17__normal_iteratorIPN2sf6VertexESt6vectorIS2_SaIS2_EEEC1ERKS3_
	movq	-8(%rbp), %rax
	addq	$48, %rsp
	popq	%rbp
	ret
	.seh_endproc
	.section .rdata,"dr"
.LC14:
	.ascii "vector::_M_realloc_insert\0"
	.section	.text$_ZNSt6vectorIN2sf6VertexESaIS1_EE17_M_realloc_insertIJNS0_7Vector2IfEEEEEvN9__gnu_cxx17__normal_iteratorIPS1_S3_EEDpOT_,"x"
	.linkonce discard
	.align 2
	.globl	_ZNSt6vectorIN2sf6VertexESaIS1_EE17_M_realloc_insertIJNS0_7Vector2IfEEEEEvN9__gnu_cxx17__normal_iteratorIPS1_S3_EEDpOT_
	.def	_ZNSt6vectorIN2sf6VertexESaIS1_EE17_M_realloc_insertIJNS0_7Vector2IfEEEEEvN9__gnu_cxx17__normal_iteratorIPS1_S3_EEDpOT_;	.scl	2;	.type	32;	.endef
	.seh_proc	_ZNSt6vectorIN2sf6VertexESaIS1_EE17_M_realloc_insertIJNS0_7Vector2IfEEEEEvN9__gnu_cxx17__normal_iteratorIPS1_S3_EEDpOT_
_ZNSt6vectorIN2sf6VertexESaIS1_EE17_M_realloc_insertIJNS0_7Vector2IfEEEEEvN9__gnu_cxx17__normal_iteratorIPS1_S3_EEDpOT_:
.LFB4695:
	pushq	%rbp
	.seh_pushreg	%rbp
	pushq	%rbx
	.seh_pushreg	%rbx
	subq	$104, %rsp
	.seh_stackalloc	104
	leaq	128(%rsp), %rbp
	.seh_setframe	%rbp, 128
	.seh_endprologue
	movq	%rcx, 0(%rbp)
	movq	%rdx, 8(%rbp)
	movq	%r8, 16(%rbp)
	leaq	.LC14(%rip), %r8
	movl	$1, %edx
	movq	0(%rbp), %rcx
.LEHB65:
	call	_ZNKSt6vectorIN2sf6VertexESaIS1_EE12_M_check_lenEyPKc
	movq	%rax, -48(%rbp)
	movq	0(%rbp), %rax
	movq	(%rax), %rax
	movq	%rax, -56(%rbp)
	movq	0(%rbp), %rax
	movq	8(%rax), %rax
	movq	%rax, -64(%rbp)
	movq	0(%rbp), %rcx
	call	_ZNSt6vectorIN2sf6VertexESaIS1_EE5beginEv
	movq	%rax, -88(%rbp)
	leaq	-88(%rbp), %rdx
	leaq	8(%rbp), %rax
	movq	%rax, %rcx
	call	_ZN9__gnu_cxxmiIPN2sf6VertexESt6vectorIS2_SaIS2_EEEENS_17__normal_iteratorIT_T0_E15difference_typeERKSA_SD_
	movq	%rax, -72(%rbp)
	movq	0(%rbp), %rax
	movq	-48(%rbp), %rdx
	movq	%rax, %rcx
	call	_ZNSt12_Vector_baseIN2sf6VertexESaIS1_EE11_M_allocateEy
.LEHE65:
	movq	%rax, -80(%rbp)
	movq	-80(%rbp), %rax
	movq	%rax, -40(%rbp)
	movq	16(%rbp), %rax
	movq	%rax, %rcx
	call	_ZSt7forwardIN2sf7Vector2IfEEEOT_RNSt16remove_referenceIS3_E4typeE
	movq	%rax, %rcx
	movq	-72(%rbp), %rdx
	movq	%rdx, %rax
	salq	$2, %rax
	addq	%rdx, %rax
	salq	$2, %rax
	movq	%rax, %rdx
	movq	-80(%rbp), %rax
	addq	%rax, %rdx
	movq	0(%rbp), %rax
	movq	%rcx, %r8
	movq	%rax, %rcx
.LEHB66:
	call	_ZNSt16allocator_traitsISaIN2sf6VertexEEE9constructIS1_JNS0_7Vector2IfEEEEEvRS2_PT_DpOT0_
	movq	$0, -40(%rbp)
	movq	0(%rbp), %rax
	movq	%rax, %rcx
	call	_ZNSt12_Vector_baseIN2sf6VertexESaIS1_EE19_M_get_Tp_allocatorEv
	movq	%rax, %rbx
	leaq	8(%rbp), %rax
	movq	%rax, %rcx
	call	_ZNK9__gnu_cxx17__normal_iteratorIPN2sf6VertexESt6vectorIS2_SaIS2_EEE4baseEv
	movq	(%rax), %rdx
	movq	-80(%rbp), %rcx
	movq	-56(%rbp), %rax
	movq	%rbx, %r9
	movq	%rcx, %r8
	movq	%rax, %rcx
	call	_ZSt34__uninitialized_move_if_noexcept_aIPN2sf6VertexES2_SaIS1_EET0_T_S5_S4_RT1_
	movq	%rax, -40(%rbp)
	addq	$20, -40(%rbp)
	movq	0(%rbp), %rax
	movq	%rax, %rcx
	call	_ZNSt12_Vector_baseIN2sf6VertexESaIS1_EE19_M_get_Tp_allocatorEv
	movq	%rax, %rbx
	leaq	8(%rbp), %rax
	movq	%rax, %rcx
	call	_ZNK9__gnu_cxx17__normal_iteratorIPN2sf6VertexESt6vectorIS2_SaIS2_EEE4baseEv
	movq	(%rax), %rax
	movq	-40(%rbp), %rcx
	movq	-64(%rbp), %rdx
	movq	%rbx, %r9
	movq	%rcx, %r8
	movq	%rax, %rcx
	call	_ZSt34__uninitialized_move_if_noexcept_aIPN2sf6VertexES2_SaIS1_EET0_T_S5_S4_RT1_
.LEHE66:
	movq	%rax, -40(%rbp)
	movq	0(%rbp), %rax
	movq	%rax, %rcx
	call	_ZNSt12_Vector_baseIN2sf6VertexESaIS1_EE19_M_get_Tp_allocatorEv
	movq	%rax, %rcx
	movq	-64(%rbp), %rdx
	movq	-56(%rbp), %rax
	movq	%rcx, %r8
	movq	%rax, %rcx
.LEHB67:
	call	_ZSt8_DestroyIPN2sf6VertexES1_EvT_S3_RSaIT0_E
	movq	0(%rbp), %rax
	movq	0(%rbp), %rdx
	movq	16(%rdx), %rdx
	subq	-56(%rbp), %rdx
	movq	%rdx, %rcx
	sarq	$2, %rcx
	movabsq	$-3689348814741910323, %rdx
	imulq	%rcx, %rdx
	movq	%rdx, %rcx
	movq	-56(%rbp), %rdx
	movq	%rcx, %r8
	movq	%rax, %rcx
	call	_ZNSt12_Vector_baseIN2sf6VertexESaIS1_EE13_M_deallocateEPS1_y
.LEHE67:
	movq	0(%rbp), %rax
	movq	-80(%rbp), %rdx
	movq	%rdx, (%rax)
	movq	0(%rbp), %rax
	movq	-40(%rbp), %rdx
	movq	%rdx, 8(%rax)
	movq	-48(%rbp), %rdx
	movq	%rdx, %rax
	salq	$2, %rax
	addq	%rdx, %rax
	salq	$2, %rax
	movq	%rax, %rdx
	movq	-80(%rbp), %rax
	addq	%rax, %rdx
	movq	0(%rbp), %rax
	movq	%rdx, 16(%rax)
	jmp	.L457
.L455:
	movq	%rax, %rcx
	call	__cxa_begin_catch
	cmpq	$0, -40(%rbp)
	jne	.L452
	movq	-72(%rbp), %rdx
	movq	%rdx, %rax
	salq	$2, %rax
	addq	%rdx, %rax
	salq	$2, %rax
	movq	%rax, %rdx
	movq	-80(%rbp), %rax
	addq	%rax, %rdx
	movq	0(%rbp), %rax
	movq	%rax, %rcx
.LEHB68:
	call	_ZNSt16allocator_traitsISaIN2sf6VertexEEE7destroyIS1_EEvRS2_PT_
	jmp	.L453
.L452:
	movq	0(%rbp), %rax
	movq	%rax, %rcx
	call	_ZNSt12_Vector_baseIN2sf6VertexESaIS1_EE19_M_get_Tp_allocatorEv
	movq	%rax, %rcx
	movq	-40(%rbp), %rdx
	movq	-80(%rbp), %rax
	movq	%rcx, %r8
	movq	%rax, %rcx
	call	_ZSt8_DestroyIPN2sf6VertexES1_EvT_S3_RSaIT0_E
.L453:
	movq	0(%rbp), %rax
	movq	-48(%rbp), %rcx
	movq	-80(%rbp), %rdx
	movq	%rcx, %r8
	movq	%rax, %rcx
	call	_ZNSt12_Vector_baseIN2sf6VertexESaIS1_EE13_M_deallocateEPS1_y
	call	__cxa_rethrow
.LEHE68:
.L456:
	movq	%rax, %rbx
	call	__cxa_end_catch
	movq	%rbx, %rax
	movq	%rax, %rcx
.LEHB69:
	call	_Unwind_Resume
	nop
.LEHE69:
.L457:
	addq	$104, %rsp
	popq	%rbx
	popq	%rbp
	ret
	.seh_handler	__gxx_personality_seh0, @unwind, @except
	.seh_handlerdata
	.align 4
.LLSDA4695:
	.byte	0xff
	.byte	0x9b
	.uleb128 .LLSDATT4695-.LLSDATTD4695
.LLSDATTD4695:
	.byte	0x1
	.uleb128 .LLSDACSE4695-.LLSDACSB4695
.LLSDACSB4695:
	.uleb128 .LEHB65-.LFB4695
	.uleb128 .LEHE65-.LEHB65
	.uleb128 0
	.uleb128 0
	.uleb128 .LEHB66-.LFB4695
	.uleb128 .LEHE66-.LEHB66
	.uleb128 .L455-.LFB4695
	.uleb128 0x1
	.uleb128 .LEHB67-.LFB4695
	.uleb128 .LEHE67-.LEHB67
	.uleb128 0
	.uleb128 0
	.uleb128 .LEHB68-.LFB4695
	.uleb128 .LEHE68-.LEHB68
	.uleb128 .L456-.LFB4695
	.uleb128 0
	.uleb128 .LEHB69-.LFB4695
	.uleb128 .LEHE69-.LEHB69
	.uleb128 0
	.uleb128 0
.LLSDACSE4695:
	.byte	0x1
	.byte	0
	.align 4
	.long	0

.LLSDATT4695:
	.section	.text$_ZNSt6vectorIN2sf6VertexESaIS1_EE17_M_realloc_insertIJNS0_7Vector2IfEEEEEvN9__gnu_cxx17__normal_iteratorIPS1_S3_EEDpOT_,"x"
	.linkonce discard
	.seh_endproc
	.section	.text$_ZNSt12_Vector_baseIN2sf6VertexESaIS1_EEC2Ev,"x"
	.linkonce discard
	.align 2
	.globl	_ZNSt12_Vector_baseIN2sf6VertexESaIS1_EEC2Ev
	.def	_ZNSt12_Vector_baseIN2sf6VertexESaIS1_EEC2Ev;	.scl	2;	.type	32;	.endef
	.seh_proc	_ZNSt12_Vector_baseIN2sf6VertexESaIS1_EEC2Ev
_ZNSt12_Vector_baseIN2sf6VertexESaIS1_EEC2Ev:
.LFB4697:
	pushq	%rbp
	.seh_pushreg	%rbp
	movq	%rsp, %rbp
	.seh_setframe	%rbp, 0
	subq	$32, %rsp
	.seh_stackalloc	32
	.seh_endprologue
	movq	%rcx, 16(%rbp)
	movq	16(%rbp), %rax
	movq	%rax, %rcx
	call	_ZNSt12_Vector_baseIN2sf6VertexESaIS1_EE12_Vector_implC1Ev
	nop
	addq	$32, %rsp
	popq	%rbp
	ret
	.seh_endproc
	.section	.text$_ZN9__gnu_cxx17__normal_iteratorIPSt10shared_ptrI4EdgeESt6vectorIS3_SaIS3_EEEC1ERKS4_,"x"
	.linkonce discard
	.align 2
	.globl	_ZN9__gnu_cxx17__normal_iteratorIPSt10shared_ptrI4EdgeESt6vectorIS3_SaIS3_EEEC1ERKS4_
	.def	_ZN9__gnu_cxx17__normal_iteratorIPSt10shared_ptrI4EdgeESt6vectorIS3_SaIS3_EEEC1ERKS4_;	.scl	2;	.type	32;	.endef
	.seh_proc	_ZN9__gnu_cxx17__normal_iteratorIPSt10shared_ptrI4EdgeESt6vectorIS3_SaIS3_EEEC1ERKS4_
_ZN9__gnu_cxx17__normal_iteratorIPSt10shared_ptrI4EdgeESt6vectorIS3_SaIS3_EEEC1ERKS4_:
.LFB4701:
	pushq	%rbp
	.seh_pushreg	%rbp
	movq	%rsp, %rbp
	.seh_setframe	%rbp, 0
	.seh_endprologue
	movq	%rcx, 16(%rbp)
	movq	%rdx, 24(%rbp)
	movq	24(%rbp), %rax
	movq	(%rax), %rdx
	movq	16(%rbp), %rax
	movq	%rdx, (%rax)
	nop
	popq	%rbp
	ret
	.seh_endproc
	.section	.text$_ZNK9__gnu_cxx17__normal_iteratorIPSt10shared_ptrI4EdgeESt6vectorIS3_SaIS3_EEE4baseEv,"x"
	.linkonce discard
	.align 2
	.globl	_ZNK9__gnu_cxx17__normal_iteratorIPSt10shared_ptrI4EdgeESt6vectorIS3_SaIS3_EEE4baseEv
	.def	_ZNK9__gnu_cxx17__normal_iteratorIPSt10shared_ptrI4EdgeESt6vectorIS3_SaIS3_EEE4baseEv;	.scl	2;	.type	32;	.endef
	.seh_proc	_ZNK9__gnu_cxx17__normal_iteratorIPSt10shared_ptrI4EdgeESt6vectorIS3_SaIS3_EEE4baseEv
_ZNK9__gnu_cxx17__normal_iteratorIPSt10shared_ptrI4EdgeESt6vectorIS3_SaIS3_EEE4baseEv:
.LFB4702:
	pushq	%rbp
	.seh_pushreg	%rbp
	movq	%rsp, %rbp
	.seh_setframe	%rbp, 0
	.seh_endprologue
	movq	%rcx, 16(%rbp)
	movq	16(%rbp), %rax
	popq	%rbp
	ret
	.seh_endproc
	.section	.text$_ZNKSt19__shared_ptr_accessI4EdgeLN9__gnu_cxx12_Lock_policyE2ELb0ELb0EE6_M_getEv,"x"
	.linkonce discard
	.align 2
	.globl	_ZNKSt19__shared_ptr_accessI4EdgeLN9__gnu_cxx12_Lock_policyE2ELb0ELb0EE6_M_getEv
	.def	_ZNKSt19__shared_ptr_accessI4EdgeLN9__gnu_cxx12_Lock_policyE2ELb0ELb0EE6_M_getEv;	.scl	2;	.type	32;	.endef
	.seh_proc	_ZNKSt19__shared_ptr_accessI4EdgeLN9__gnu_cxx12_Lock_policyE2ELb0ELb0EE6_M_getEv
_ZNKSt19__shared_ptr_accessI4EdgeLN9__gnu_cxx12_Lock_policyE2ELb0ELb0EE6_M_getEv:
.LFB4703:
	pushq	%rbp
	.seh_pushreg	%rbp
	movq	%rsp, %rbp
	.seh_setframe	%rbp, 0
	subq	$32, %rsp
	.seh_stackalloc	32
	.seh_endprologue
	movq	%rcx, 16(%rbp)
	movq	16(%rbp), %rcx
	call	_ZNKSt12__shared_ptrI4EdgeLN9__gnu_cxx12_Lock_policyE2EE3getEv
	addq	$32, %rsp
	popq	%rbp
	ret
	.seh_endproc
	.section	.text$_ZSt7forwardIRKN2sf5ColorEEOT_RNSt16remove_referenceIS4_E4typeE,"x"
	.linkonce discard
	.globl	_ZSt7forwardIRKN2sf5ColorEEOT_RNSt16remove_referenceIS4_E4typeE
	.def	_ZSt7forwardIRKN2sf5ColorEEOT_RNSt16remove_referenceIS4_E4typeE;	.scl	2;	.type	32;	.endef
	.seh_proc	_ZSt7forwardIRKN2sf5ColorEEOT_RNSt16remove_referenceIS4_E4typeE
_ZSt7forwardIRKN2sf5ColorEEOT_RNSt16remove_referenceIS4_E4typeE:
.LFB4704:
	pushq	%rbp
	.seh_pushreg	%rbp
	movq	%rsp, %rbp
	.seh_setframe	%rbp, 0
	.seh_endprologue
	movq	%rcx, 16(%rbp)
	movq	16(%rbp), %rax
	popq	%rbp
	ret
	.seh_endproc
	.section	.text$_ZNSt16allocator_traitsISaIN2sf6VertexEEE9constructIS1_JNS0_7Vector2IfEERKNS0_5ColorEEEEvRS2_PT_DpOT0_,"x"
	.linkonce discard
	.globl	_ZNSt16allocator_traitsISaIN2sf6VertexEEE9constructIS1_JNS0_7Vector2IfEERKNS0_5ColorEEEEvRS2_PT_DpOT0_
	.def	_ZNSt16allocator_traitsISaIN2sf6VertexEEE9constructIS1_JNS0_7Vector2IfEERKNS0_5ColorEEEEvRS2_PT_DpOT0_;	.scl	2;	.type	32;	.endef
	.seh_proc	_ZNSt16allocator_traitsISaIN2sf6VertexEEE9constructIS1_JNS0_7Vector2IfEERKNS0_5ColorEEEEvRS2_PT_DpOT0_
_ZNSt16allocator_traitsISaIN2sf6VertexEEE9constructIS1_JNS0_7Vector2IfEERKNS0_5ColorEEEEvRS2_PT_DpOT0_:
.LFB4705:
	pushq	%rbp
	.seh_pushreg	%rbp
	pushq	%rbx
	.seh_pushreg	%rbx
	subq	$40, %rsp
	.seh_stackalloc	40
	leaq	128(%rsp), %rbp
	.seh_setframe	%rbp, 128
	.seh_endprologue
	movq	%rcx, -64(%rbp)
	movq	%rdx, -56(%rbp)
	movq	%r8, -48(%rbp)
	movq	%r9, -40(%rbp)
	movq	-40(%rbp), %rax
	movq	%rax, %rcx
	call	_ZSt7forwardIRKN2sf5ColorEEOT_RNSt16remove_referenceIS4_E4typeE
	movq	%rax, %rbx
	movq	-48(%rbp), %rax
	movq	%rax, %rcx
	call	_ZSt7forwardIN2sf7Vector2IfEEEOT_RNSt16remove_referenceIS3_E4typeE
	movq	%rax, %rdx
	movq	-56(%rbp), %rax
	movq	%rbx, %r9
	movq	%rdx, %r8
	movq	%rax, %rdx
	movq	-64(%rbp), %rcx
	call	_ZN9__gnu_cxx13new_allocatorIN2sf6VertexEE9constructIS2_JNS1_7Vector2IfEERKNS1_5ColorEEEEvPT_DpOT0_
	nop
	addq	$40, %rsp
	popq	%rbx
	popq	%rbp
	ret
	.seh_endproc
	.section	.text$_ZNSt6vectorIN2sf6VertexESaIS1_EE17_M_realloc_insertIJNS0_7Vector2IfEERKNS0_5ColorEEEEvN9__gnu_cxx17__normal_iteratorIPS1_S3_EEDpOT_,"x"
	.linkonce discard
	.align 2
	.globl	_ZNSt6vectorIN2sf6VertexESaIS1_EE17_M_realloc_insertIJNS0_7Vector2IfEERKNS0_5ColorEEEEvN9__gnu_cxx17__normal_iteratorIPS1_S3_EEDpOT_
	.def	_ZNSt6vectorIN2sf6VertexESaIS1_EE17_M_realloc_insertIJNS0_7Vector2IfEERKNS0_5ColorEEEEvN9__gnu_cxx17__normal_iteratorIPS1_S3_EEDpOT_;	.scl	2;	.type	32;	.endef
	.seh_proc	_ZNSt6vectorIN2sf6VertexESaIS1_EE17_M_realloc_insertIJNS0_7Vector2IfEERKNS0_5ColorEEEEvN9__gnu_cxx17__normal_iteratorIPS1_S3_EEDpOT_
_ZNSt6vectorIN2sf6VertexESaIS1_EE17_M_realloc_insertIJNS0_7Vector2IfEERKNS0_5ColorEEEEvN9__gnu_cxx17__normal_iteratorIPS1_S3_EEDpOT_:
.LFB4706:
	pushq	%rbp
	.seh_pushreg	%rbp
	pushq	%rbx
	.seh_pushreg	%rbx
	subq	$104, %rsp
	.seh_stackalloc	104
	leaq	128(%rsp), %rbp
	.seh_setframe	%rbp, 128
	.seh_endprologue
	movq	%rcx, 0(%rbp)
	movq	%rdx, 8(%rbp)
	movq	%r8, 16(%rbp)
	movq	%r9, 24(%rbp)
	leaq	.LC14(%rip), %r8
	movl	$1, %edx
	movq	0(%rbp), %rcx
.LEHB70:
	call	_ZNKSt6vectorIN2sf6VertexESaIS1_EE12_M_check_lenEyPKc
	movq	%rax, -48(%rbp)
	movq	0(%rbp), %rax
	movq	(%rax), %rax
	movq	%rax, -56(%rbp)
	movq	0(%rbp), %rax
	movq	8(%rax), %rax
	movq	%rax, -64(%rbp)
	movq	0(%rbp), %rcx
	call	_ZNSt6vectorIN2sf6VertexESaIS1_EE5beginEv
	movq	%rax, -88(%rbp)
	leaq	-88(%rbp), %rdx
	leaq	8(%rbp), %rax
	movq	%rax, %rcx
	call	_ZN9__gnu_cxxmiIPN2sf6VertexESt6vectorIS2_SaIS2_EEEENS_17__normal_iteratorIT_T0_E15difference_typeERKSA_SD_
	movq	%rax, -72(%rbp)
	movq	0(%rbp), %rax
	movq	-48(%rbp), %rdx
	movq	%rax, %rcx
	call	_ZNSt12_Vector_baseIN2sf6VertexESaIS1_EE11_M_allocateEy
.LEHE70:
	movq	%rax, -80(%rbp)
	movq	-80(%rbp), %rax
	movq	%rax, -40(%rbp)
	movq	24(%rbp), %rax
	movq	%rax, %rcx
	call	_ZSt7forwardIRKN2sf5ColorEEOT_RNSt16remove_referenceIS4_E4typeE
	movq	%rax, %rbx
	movq	16(%rbp), %rax
	movq	%rax, %rcx
	call	_ZSt7forwardIN2sf7Vector2IfEEEOT_RNSt16remove_referenceIS3_E4typeE
	movq	%rax, %rcx
	movq	-72(%rbp), %rdx
	movq	%rdx, %rax
	salq	$2, %rax
	addq	%rdx, %rax
	salq	$2, %rax
	movq	%rax, %rdx
	movq	-80(%rbp), %rax
	addq	%rax, %rdx
	movq	0(%rbp), %rax
	movq	%rbx, %r9
	movq	%rcx, %r8
	movq	%rax, %rcx
.LEHB71:
	call	_ZNSt16allocator_traitsISaIN2sf6VertexEEE9constructIS1_JNS0_7Vector2IfEERKNS0_5ColorEEEEvRS2_PT_DpOT0_
	movq	$0, -40(%rbp)
	movq	0(%rbp), %rax
	movq	%rax, %rcx
	call	_ZNSt12_Vector_baseIN2sf6VertexESaIS1_EE19_M_get_Tp_allocatorEv
	movq	%rax, %rbx
	leaq	8(%rbp), %rax
	movq	%rax, %rcx
	call	_ZNK9__gnu_cxx17__normal_iteratorIPN2sf6VertexESt6vectorIS2_SaIS2_EEE4baseEv
	movq	(%rax), %rdx
	movq	-80(%rbp), %rcx
	movq	-56(%rbp), %rax
	movq	%rbx, %r9
	movq	%rcx, %r8
	movq	%rax, %rcx
	call	_ZSt34__uninitialized_move_if_noexcept_aIPN2sf6VertexES2_SaIS1_EET0_T_S5_S4_RT1_
	movq	%rax, -40(%rbp)
	addq	$20, -40(%rbp)
	movq	0(%rbp), %rax
	movq	%rax, %rcx
	call	_ZNSt12_Vector_baseIN2sf6VertexESaIS1_EE19_M_get_Tp_allocatorEv
	movq	%rax, %rbx
	leaq	8(%rbp), %rax
	movq	%rax, %rcx
	call	_ZNK9__gnu_cxx17__normal_iteratorIPN2sf6VertexESt6vectorIS2_SaIS2_EEE4baseEv
	movq	(%rax), %rax
	movq	-40(%rbp), %rcx
	movq	-64(%rbp), %rdx
	movq	%rbx, %r9
	movq	%rcx, %r8
	movq	%rax, %rcx
	call	_ZSt34__uninitialized_move_if_noexcept_aIPN2sf6VertexES2_SaIS1_EET0_T_S5_S4_RT1_
.LEHE71:
	movq	%rax, -40(%rbp)
	movq	0(%rbp), %rax
	movq	%rax, %rcx
	call	_ZNSt12_Vector_baseIN2sf6VertexESaIS1_EE19_M_get_Tp_allocatorEv
	movq	%rax, %rcx
	movq	-64(%rbp), %rdx
	movq	-56(%rbp), %rax
	movq	%rcx, %r8
	movq	%rax, %rcx
.LEHB72:
	call	_ZSt8_DestroyIPN2sf6VertexES1_EvT_S3_RSaIT0_E
	movq	0(%rbp), %rax
	movq	0(%rbp), %rdx
	movq	16(%rdx), %rdx
	subq	-56(%rbp), %rdx
	movq	%rdx, %rcx
	sarq	$2, %rcx
	movabsq	$-3689348814741910323, %rdx
	imulq	%rcx, %rdx
	movq	%rdx, %rcx
	movq	-56(%rbp), %rdx
	movq	%rcx, %r8
	movq	%rax, %rcx
	call	_ZNSt12_Vector_baseIN2sf6VertexESaIS1_EE13_M_deallocateEPS1_y
.LEHE72:
	movq	0(%rbp), %rax
	movq	-80(%rbp), %rdx
	movq	%rdx, (%rax)
	movq	0(%rbp), %rax
	movq	-40(%rbp), %rdx
	movq	%rdx, 8(%rax)
	movq	-48(%rbp), %rdx
	movq	%rdx, %rax
	salq	$2, %rax
	addq	%rdx, %rax
	salq	$2, %rax
	movq	%rax, %rdx
	movq	-80(%rbp), %rax
	addq	%rax, %rdx
	movq	0(%rbp), %rax
	movq	%rdx, 16(%rax)
	jmp	.L474
.L472:
	movq	%rax, %rcx
	call	__cxa_begin_catch
	cmpq	$0, -40(%rbp)
	jne	.L469
	movq	-72(%rbp), %rdx
	movq	%rdx, %rax
	salq	$2, %rax
	addq	%rdx, %rax
	salq	$2, %rax
	movq	%rax, %rdx
	movq	-80(%rbp), %rax
	addq	%rax, %rdx
	movq	0(%rbp), %rax
	movq	%rax, %rcx
.LEHB73:
	call	_ZNSt16allocator_traitsISaIN2sf6VertexEEE7destroyIS1_EEvRS2_PT_
	jmp	.L470
.L469:
	movq	0(%rbp), %rax
	movq	%rax, %rcx
	call	_ZNSt12_Vector_baseIN2sf6VertexESaIS1_EE19_M_get_Tp_allocatorEv
	movq	%rax, %rcx
	movq	-40(%rbp), %rdx
	movq	-80(%rbp), %rax
	movq	%rcx, %r8
	movq	%rax, %rcx
	call	_ZSt8_DestroyIPN2sf6VertexES1_EvT_S3_RSaIT0_E
.L470:
	movq	0(%rbp), %rax
	movq	-48(%rbp), %rcx
	movq	-80(%rbp), %rdx
	movq	%rcx, %r8
	movq	%rax, %rcx
	call	_ZNSt12_Vector_baseIN2sf6VertexESaIS1_EE13_M_deallocateEPS1_y
	call	__cxa_rethrow
.LEHE73:
.L473:
	movq	%rax, %rbx
	call	__cxa_end_catch
	movq	%rbx, %rax
	movq	%rax, %rcx
.LEHB74:
	call	_Unwind_Resume
	nop
.LEHE74:
.L474:
	addq	$104, %rsp
	popq	%rbx
	popq	%rbp
	ret
	.seh_handler	__gxx_personality_seh0, @unwind, @except
	.seh_handlerdata
	.align 4
.LLSDA4706:
	.byte	0xff
	.byte	0x9b
	.uleb128 .LLSDATT4706-.LLSDATTD4706
.LLSDATTD4706:
	.byte	0x1
	.uleb128 .LLSDACSE4706-.LLSDACSB4706
.LLSDACSB4706:
	.uleb128 .LEHB70-.LFB4706
	.uleb128 .LEHE70-.LEHB70
	.uleb128 0
	.uleb128 0
	.uleb128 .LEHB71-.LFB4706
	.uleb128 .LEHE71-.LEHB71
	.uleb128 .L472-.LFB4706
	.uleb128 0x1
	.uleb128 .LEHB72-.LFB4706
	.uleb128 .LEHE72-.LEHB72
	.uleb128 0
	.uleb128 0
	.uleb128 .LEHB73-.LFB4706
	.uleb128 .LEHE73-.LEHB73
	.uleb128 .L473-.LFB4706
	.uleb128 0
	.uleb128 .LEHB74-.LFB4706
	.uleb128 .LEHE74-.LEHB74
	.uleb128 0
	.uleb128 0
.LLSDACSE4706:
	.byte	0x1
	.byte	0
	.align 4
	.long	0

.LLSDATT4706:
	.section	.text$_ZNSt6vectorIN2sf6VertexESaIS1_EE17_M_realloc_insertIJNS0_7Vector2IfEERKNS0_5ColorEEEEvN9__gnu_cxx17__normal_iteratorIPS1_S3_EEDpOT_,"x"
	.linkonce discard
	.seh_endproc
	.section	.text$_ZNSt12_Vector_baseIP4CellSaIS1_EE12_Vector_implD1Ev,"x"
	.linkonce discard
	.align 2
	.globl	_ZNSt12_Vector_baseIP4CellSaIS1_EE12_Vector_implD1Ev
	.def	_ZNSt12_Vector_baseIP4CellSaIS1_EE12_Vector_implD1Ev;	.scl	2;	.type	32;	.endef
	.seh_proc	_ZNSt12_Vector_baseIP4CellSaIS1_EE12_Vector_implD1Ev
_ZNSt12_Vector_baseIP4CellSaIS1_EE12_Vector_implD1Ev:
.LFB4710:
	pushq	%rbp
	.seh_pushreg	%rbp
	movq	%rsp, %rbp
	.seh_setframe	%rbp, 0
	subq	$32, %rsp
	.seh_stackalloc	32
	.seh_endprologue
	movq	%rcx, 16(%rbp)
	movq	16(%rbp), %rcx
	call	_ZNSaIP4CellED2Ev
	nop
	addq	$32, %rsp
	popq	%rbp
	ret
	.seh_endproc
	.section	.text$_ZNSt12_Vector_baseIP4CellSaIS1_EEC2Ev,"x"
	.linkonce discard
	.align 2
	.globl	_ZNSt12_Vector_baseIP4CellSaIS1_EEC2Ev
	.def	_ZNSt12_Vector_baseIP4CellSaIS1_EEC2Ev;	.scl	2;	.type	32;	.endef
	.seh_proc	_ZNSt12_Vector_baseIP4CellSaIS1_EEC2Ev
_ZNSt12_Vector_baseIP4CellSaIS1_EEC2Ev:
.LFB4711:
	pushq	%rbp
	.seh_pushreg	%rbp
	movq	%rsp, %rbp
	.seh_setframe	%rbp, 0
	subq	$32, %rsp
	.seh_stackalloc	32
	.seh_endprologue
	movq	%rcx, 16(%rbp)
	movq	16(%rbp), %rax
	movq	%rax, %rcx
	call	_ZNSt12_Vector_baseIP4CellSaIS1_EE12_Vector_implC1Ev
	nop
	addq	$32, %rsp
	popq	%rbp
	ret
	.seh_endproc
	.section	.text$_ZNSt12_Vector_baseIP4CellSaIS1_EED2Ev,"x"
	.linkonce discard
	.align 2
	.globl	_ZNSt12_Vector_baseIP4CellSaIS1_EED2Ev
	.def	_ZNSt12_Vector_baseIP4CellSaIS1_EED2Ev;	.scl	2;	.type	32;	.endef
	.seh_proc	_ZNSt12_Vector_baseIP4CellSaIS1_EED2Ev
_ZNSt12_Vector_baseIP4CellSaIS1_EED2Ev:
.LFB4714:
	pushq	%rbp
	.seh_pushreg	%rbp
	movq	%rsp, %rbp
	.seh_setframe	%rbp, 0
	subq	$32, %rsp
	.seh_stackalloc	32
	.seh_endprologue
	movq	%rcx, 16(%rbp)
	movq	16(%rbp), %rax
	movq	16(%rax), %rdx
	movq	16(%rbp), %rax
	movq	(%rax), %rax
	subq	%rax, %rdx
	movq	%rdx, %rax
	sarq	$3, %rax
	movq	%rax, %rdx
	movq	16(%rbp), %rax
	movq	(%rax), %rax
	movq	%rdx, %r8
	movq	%rax, %rdx
	movq	16(%rbp), %rcx
	call	_ZNSt12_Vector_baseIP4CellSaIS1_EE13_M_deallocateEPS1_y
	movq	16(%rbp), %rax
	movq	%rax, %rcx
	call	_ZNSt12_Vector_baseIP4CellSaIS1_EE12_Vector_implD1Ev
	nop
	addq	$32, %rsp
	popq	%rbp
	ret
	.seh_handler	__gxx_personality_seh0, @unwind, @except
	.seh_handlerdata
.LLSDA4714:
	.byte	0xff
	.byte	0xff
	.byte	0x1
	.uleb128 .LLSDACSE4714-.LLSDACSB4714
.LLSDACSB4714:
.LLSDACSE4714:
	.section	.text$_ZNSt12_Vector_baseIP4CellSaIS1_EED2Ev,"x"
	.linkonce discard
	.seh_endproc
	.section	.text$_ZNSt12_Vector_baseIP4CellSaIS1_EE19_M_get_Tp_allocatorEv,"x"
	.linkonce discard
	.align 2
	.globl	_ZNSt12_Vector_baseIP4CellSaIS1_EE19_M_get_Tp_allocatorEv
	.def	_ZNSt12_Vector_baseIP4CellSaIS1_EE19_M_get_Tp_allocatorEv;	.scl	2;	.type	32;	.endef
	.seh_proc	_ZNSt12_Vector_baseIP4CellSaIS1_EE19_M_get_Tp_allocatorEv
_ZNSt12_Vector_baseIP4CellSaIS1_EE19_M_get_Tp_allocatorEv:
.LFB4716:
	pushq	%rbp
	.seh_pushreg	%rbp
	movq	%rsp, %rbp
	.seh_setframe	%rbp, 0
	.seh_endprologue
	movq	%rcx, 16(%rbp)
	movq	16(%rbp), %rax
	popq	%rbp
	ret
	.seh_endproc
	.section	.text$_ZSt8_DestroyIPP4CellS1_EvT_S3_RSaIT0_E,"x"
	.linkonce discard
	.globl	_ZSt8_DestroyIPP4CellS1_EvT_S3_RSaIT0_E
	.def	_ZSt8_DestroyIPP4CellS1_EvT_S3_RSaIT0_E;	.scl	2;	.type	32;	.endef
	.seh_proc	_ZSt8_DestroyIPP4CellS1_EvT_S3_RSaIT0_E
_ZSt8_DestroyIPP4CellS1_EvT_S3_RSaIT0_E:
.LFB4717:
	pushq	%rbp
	.seh_pushreg	%rbp
	movq	%rsp, %rbp
	.seh_setframe	%rbp, 0
	subq	$32, %rsp
	.seh_stackalloc	32
	.seh_endprologue
	movq	%rcx, 16(%rbp)
	movq	%rdx, 24(%rbp)
	movq	%r8, 32(%rbp)
	movq	24(%rbp), %rax
	movq	%rax, %rdx
	movq	16(%rbp), %rcx
	call	_ZSt8_DestroyIPP4CellEvT_S3_
	nop
	addq	$32, %rsp
	popq	%rbp
	ret
	.seh_endproc
	.section	.text$_ZNKSt6vectorIP4CellSaIS1_EE8max_sizeEv,"x"
	.linkonce discard
	.align 2
	.globl	_ZNKSt6vectorIP4CellSaIS1_EE8max_sizeEv
	.def	_ZNKSt6vectorIP4CellSaIS1_EE8max_sizeEv;	.scl	2;	.type	32;	.endef
	.seh_proc	_ZNKSt6vectorIP4CellSaIS1_EE8max_sizeEv
_ZNKSt6vectorIP4CellSaIS1_EE8max_sizeEv:
.LFB4718:
	pushq	%rbp
	.seh_pushreg	%rbp
	movq	%rsp, %rbp
	.seh_setframe	%rbp, 0
	subq	$32, %rsp
	.seh_stackalloc	32
	.seh_endprologue
	movq	%rcx, 16(%rbp)
	movq	16(%rbp), %rax
	movq	%rax, %rcx
	call	_ZNKSt12_Vector_baseIP4CellSaIS1_EE19_M_get_Tp_allocatorEv
	movq	%rax, %rcx
	call	_ZNSt16allocator_traitsISaIP4CellEE8max_sizeERKS2_
	addq	$32, %rsp
	popq	%rbp
	ret
	.seh_endproc
	.section	.text$_ZNKSt6vectorIP4CellSaIS1_EE8capacityEv,"x"
	.linkonce discard
	.align 2
	.globl	_ZNKSt6vectorIP4CellSaIS1_EE8capacityEv
	.def	_ZNKSt6vectorIP4CellSaIS1_EE8capacityEv;	.scl	2;	.type	32;	.endef
	.seh_proc	_ZNKSt6vectorIP4CellSaIS1_EE8capacityEv
_ZNKSt6vectorIP4CellSaIS1_EE8capacityEv:
.LFB4719:
	pushq	%rbp
	.seh_pushreg	%rbp
	movq	%rsp, %rbp
	.seh_setframe	%rbp, 0
	.seh_endprologue
	movq	%rcx, 16(%rbp)
	movq	16(%rbp), %rax
	movq	16(%rax), %rdx
	movq	16(%rbp), %rax
	movq	(%rax), %rax
	subq	%rax, %rdx
	movq	%rdx, %rax
	sarq	$3, %rax
	popq	%rbp
	ret
	.seh_endproc
	.section	.text$_ZSt32__make_move_if_noexcept_iteratorIP4CellSt13move_iteratorIPS1_EET0_PT_,"x"
	.linkonce discard
	.globl	_ZSt32__make_move_if_noexcept_iteratorIP4CellSt13move_iteratorIPS1_EET0_PT_
	.def	_ZSt32__make_move_if_noexcept_iteratorIP4CellSt13move_iteratorIPS1_EET0_PT_;	.scl	2;	.type	32;	.endef
	.seh_proc	_ZSt32__make_move_if_noexcept_iteratorIP4CellSt13move_iteratorIPS1_EET0_PT_
_ZSt32__make_move_if_noexcept_iteratorIP4CellSt13move_iteratorIPS1_EET0_PT_:
.LFB4720:
	pushq	%rbp
	.seh_pushreg	%rbp
	movq	%rsp, %rbp
	.seh_setframe	%rbp, 0
	subq	$48, %rsp
	.seh_stackalloc	48
	.seh_endprologue
	movq	%rcx, 16(%rbp)
	leaq	-8(%rbp), %rax
	movq	16(%rbp), %rdx
	movq	%rax, %rcx
	call	_ZNSt13move_iteratorIPP4CellEC1ES2_
	movq	-8(%rbp), %rax
	addq	$48, %rsp
	popq	%rbp
	ret
	.seh_endproc
	.section	.text$_ZNSt6vectorIP4CellSaIS1_EE20_M_allocate_and_copyISt13move_iteratorIPS1_EEES6_yT_S8_,"x"
	.linkonce discard
	.align 2
	.globl	_ZNSt6vectorIP4CellSaIS1_EE20_M_allocate_and_copyISt13move_iteratorIPS1_EEES6_yT_S8_
	.def	_ZNSt6vectorIP4CellSaIS1_EE20_M_allocate_and_copyISt13move_iteratorIPS1_EEES6_yT_S8_;	.scl	2;	.type	32;	.endef
	.seh_proc	_ZNSt6vectorIP4CellSaIS1_EE20_M_allocate_and_copyISt13move_iteratorIPS1_EEES6_yT_S8_
_ZNSt6vectorIP4CellSaIS1_EE20_M_allocate_and_copyISt13move_iteratorIPS1_EEES6_yT_S8_:
.LFB4721:
	pushq	%rbp
	.seh_pushreg	%rbp
	pushq	%rbx
	.seh_pushreg	%rbx
	subq	$56, %rsp
	.seh_stackalloc	56
	leaq	128(%rsp), %rbp
	.seh_setframe	%rbp, 128
	.seh_endprologue
	movq	%rcx, -48(%rbp)
	movq	%rdx, -40(%rbp)
	movq	%r8, -32(%rbp)
	movq	%r9, -24(%rbp)
	movq	-48(%rbp), %rax
	movq	-40(%rbp), %rdx
	movq	%rax, %rcx
.LEHB75:
	call	_ZNSt12_Vector_baseIP4CellSaIS1_EE11_M_allocateEy
.LEHE75:
	movq	%rax, -88(%rbp)
	movq	-48(%rbp), %rax
	movq	%rax, %rcx
	call	_ZNSt12_Vector_baseIP4CellSaIS1_EE19_M_get_Tp_allocatorEv
	movq	%rax, %r8
	movq	-88(%rbp), %rcx
	movq	-24(%rbp), %rdx
	movq	-32(%rbp), %rax
	movq	%r8, %r9
	movq	%rcx, %r8
	movq	%rax, %rcx
.LEHB76:
	call	_ZSt22__uninitialized_copy_aISt13move_iteratorIPP4CellES3_S2_ET0_T_S6_S5_RSaIT1_E
.LEHE76:
	movq	-88(%rbp), %rax
	jmp	.L493
.L491:
	movq	%rax, %rcx
	call	__cxa_begin_catch
	movq	-48(%rbp), %rax
	movq	-40(%rbp), %rcx
	movq	-88(%rbp), %rdx
	movq	%rcx, %r8
	movq	%rax, %rcx
.LEHB77:
	call	_ZNSt12_Vector_baseIP4CellSaIS1_EE13_M_deallocateEPS1_y
	call	__cxa_rethrow
.LEHE77:
.L492:
	movq	%rax, %rbx
	call	__cxa_end_catch
	movq	%rbx, %rax
	movq	%rax, %rcx
.LEHB78:
	call	_Unwind_Resume
.LEHE78:
.L493:
	addq	$56, %rsp
	popq	%rbx
	popq	%rbp
	ret
	.seh_handler	__gxx_personality_seh0, @unwind, @except
	.seh_handlerdata
	.align 4
.LLSDA4721:
	.byte	0xff
	.byte	0x9b
	.uleb128 .LLSDATT4721-.LLSDATTD4721
.LLSDATTD4721:
	.byte	0x1
	.uleb128 .LLSDACSE4721-.LLSDACSB4721
.LLSDACSB4721:
	.uleb128 .LEHB75-.LFB4721
	.uleb128 .LEHE75-.LEHB75
	.uleb128 0
	.uleb128 0
	.uleb128 .LEHB76-.LFB4721
	.uleb128 .LEHE76-.LEHB76
	.uleb128 .L491-.LFB4721
	.uleb128 0x1
	.uleb128 .LEHB77-.LFB4721
	.uleb128 .LEHE77-.LEHB77
	.uleb128 .L492-.LFB4721
	.uleb128 0
	.uleb128 .LEHB78-.LFB4721
	.uleb128 .LEHE78-.LEHB78
	.uleb128 0
	.uleb128 0
.LLSDACSE4721:
	.byte	0x1
	.byte	0
	.align 4
	.long	0

.LLSDATT4721:
	.section	.text$_ZNSt6vectorIP4CellSaIS1_EE20_M_allocate_and_copyISt13move_iteratorIPS1_EEES6_yT_S8_,"x"
	.linkonce discard
	.seh_endproc
	.section	.text$_ZNSt12_Vector_baseIP4CellSaIS1_EE13_M_deallocateEPS1_y,"x"
	.linkonce discard
	.align 2
	.globl	_ZNSt12_Vector_baseIP4CellSaIS1_EE13_M_deallocateEPS1_y
	.def	_ZNSt12_Vector_baseIP4CellSaIS1_EE13_M_deallocateEPS1_y;	.scl	2;	.type	32;	.endef
	.seh_proc	_ZNSt12_Vector_baseIP4CellSaIS1_EE13_M_deallocateEPS1_y
_ZNSt12_Vector_baseIP4CellSaIS1_EE13_M_deallocateEPS1_y:
.LFB4722:
	pushq	%rbp
	.seh_pushreg	%rbp
	movq	%rsp, %rbp
	.seh_setframe	%rbp, 0
	subq	$32, %rsp
	.seh_stackalloc	32
	.seh_endprologue
	movq	%rcx, 16(%rbp)
	movq	%rdx, 24(%rbp)
	movq	%r8, 32(%rbp)
	cmpq	$0, 24(%rbp)
	je	.L496
	movq	16(%rbp), %rax
	movq	32(%rbp), %rcx
	movq	24(%rbp), %rdx
	movq	%rcx, %r8
	movq	%rax, %rcx
	call	_ZNSt16allocator_traitsISaIP4CellEE10deallocateERS2_PS1_y
.L496:
	nop
	addq	$32, %rsp
	popq	%rbp
	ret
	.seh_endproc
	.section	.text$_ZNSt5arrayIS_IiLy2EELy4EE4dataEv,"x"
	.linkonce discard
	.align 2
	.globl	_ZNSt5arrayIS_IiLy2EELy4EE4dataEv
	.def	_ZNSt5arrayIS_IiLy2EELy4EE4dataEv;	.scl	2;	.type	32;	.endef
	.seh_proc	_ZNSt5arrayIS_IiLy2EELy4EE4dataEv
_ZNSt5arrayIS_IiLy2EELy4EE4dataEv:
.LFB4723:
	pushq	%rbp
	.seh_pushreg	%rbp
	movq	%rsp, %rbp
	.seh_setframe	%rbp, 0
	subq	$32, %rsp
	.seh_stackalloc	32
	.seh_endprologue
	movq	%rcx, 16(%rbp)
	movq	16(%rbp), %rax
	movq	%rax, %rcx
	call	_ZNSt14__array_traitsISt5arrayIiLy2EELy4EE6_S_ptrERA4_KS1_
	addq	$32, %rsp
	popq	%rbp
	ret
	.seh_endproc
	.section	.text$_ZSt4moveIRP4CellEONSt16remove_referenceIT_E4typeEOS4_,"x"
	.linkonce discard
	.globl	_ZSt4moveIRP4CellEONSt16remove_referenceIT_E4typeEOS4_
	.def	_ZSt4moveIRP4CellEONSt16remove_referenceIT_E4typeEOS4_;	.scl	2;	.type	32;	.endef
	.seh_proc	_ZSt4moveIRP4CellEONSt16remove_referenceIT_E4typeEOS4_
_ZSt4moveIRP4CellEONSt16remove_referenceIT_E4typeEOS4_:
.LFB4724:
	pushq	%rbp
	.seh_pushreg	%rbp
	movq	%rsp, %rbp
	.seh_setframe	%rbp, 0
	.seh_endprologue
	movq	%rcx, 16(%rbp)
	movq	16(%rbp), %rax
	popq	%rbp
	ret
	.seh_endproc
	.section	.text$_ZNSt6vectorIP4CellSaIS1_EE12emplace_backIJS1_EEEvDpOT_,"x"
	.linkonce discard
	.align 2
	.globl	_ZNSt6vectorIP4CellSaIS1_EE12emplace_backIJS1_EEEvDpOT_
	.def	_ZNSt6vectorIP4CellSaIS1_EE12emplace_backIJS1_EEEvDpOT_;	.scl	2;	.type	32;	.endef
	.seh_proc	_ZNSt6vectorIP4CellSaIS1_EE12emplace_backIJS1_EEEvDpOT_
_ZNSt6vectorIP4CellSaIS1_EE12emplace_backIJS1_EEEvDpOT_:
.LFB4725:
	pushq	%rbp
	.seh_pushreg	%rbp
	pushq	%rbx
	.seh_pushreg	%rbx
	subq	$40, %rsp
	.seh_stackalloc	40
	leaq	128(%rsp), %rbp
	.seh_setframe	%rbp, 128
	.seh_endprologue
	movq	%rcx, -64(%rbp)
	movq	%rdx, -56(%rbp)
	movq	-64(%rbp), %rax
	movq	8(%rax), %rdx
	movq	-64(%rbp), %rax
	movq	16(%rax), %rax
	cmpq	%rax, %rdx
	je	.L502
	movq	-56(%rbp), %rax
	movq	%rax, %rcx
	call	_ZSt7forwardIP4CellEOT_RNSt16remove_referenceIS2_E4typeE
	movq	%rax, %rcx
	movq	-64(%rbp), %rax
	movq	8(%rax), %rdx
	movq	-64(%rbp), %rax
	movq	%rcx, %r8
	movq	%rax, %rcx
	call	_ZNSt16allocator_traitsISaIP4CellEE9constructIS1_JS1_EEEvRS2_PT_DpOT0_
	movq	-64(%rbp), %rax
	movq	8(%rax), %rax
	leaq	8(%rax), %rdx
	movq	-64(%rbp), %rax
	movq	%rdx, 8(%rax)
	jmp	.L504
.L502:
	movq	-56(%rbp), %rax
	movq	%rax, %rcx
	call	_ZSt7forwardIP4CellEOT_RNSt16remove_referenceIS2_E4typeE
	movq	%rax, %rbx
	movq	-64(%rbp), %rcx
	call	_ZNSt6vectorIP4CellSaIS1_EE3endEv
	movq	%rbx, %r8
	movq	%rax, %rdx
	movq	-64(%rbp), %rcx
	call	_ZNSt6vectorIP4CellSaIS1_EE17_M_realloc_insertIJS1_EEEvN9__gnu_cxx17__normal_iteratorIPS1_S3_EEDpOT_
.L504:
	nop
	addq	$40, %rsp
	popq	%rbx
	popq	%rbp
	ret
	.seh_endproc
	.section	.text$_ZN9__gnu_cxx14__alloc_traitsISaISt6vectorI4CellSaIS2_EEES4_E17_S_select_on_copyERKS5_,"x"
	.linkonce discard
	.globl	_ZN9__gnu_cxx14__alloc_traitsISaISt6vectorI4CellSaIS2_EEES4_E17_S_select_on_copyERKS5_
	.def	_ZN9__gnu_cxx14__alloc_traitsISaISt6vectorI4CellSaIS2_EEES4_E17_S_select_on_copyERKS5_;	.scl	2;	.type	32;	.endef
	.seh_proc	_ZN9__gnu_cxx14__alloc_traitsISaISt6vectorI4CellSaIS2_EEES4_E17_S_select_on_copyERKS5_
_ZN9__gnu_cxx14__alloc_traitsISaISt6vectorI4CellSaIS2_EEES4_E17_S_select_on_copyERKS5_:
.LFB4730:
	pushq	%rbp
	.seh_pushreg	%rbp
	movq	%rsp, %rbp
	.seh_setframe	%rbp, 0
	subq	$32, %rsp
	.seh_stackalloc	32
	.seh_endprologue
	movq	%rcx, 16(%rbp)
	movq	%rdx, 24(%rbp)
	movq	16(%rbp), %rax
	movq	24(%rbp), %rdx
	movq	%rax, %rcx
	call	_ZNSt16allocator_traitsISaISt6vectorI4CellSaIS1_EEEE37select_on_container_copy_constructionERKS4_
	movq	16(%rbp), %rax
	addq	$32, %rsp
	popq	%rbp
	ret
	.seh_endproc
	.section	.text$_ZNKSt12_Vector_baseISt6vectorI4CellSaIS1_EESaIS3_EE19_M_get_Tp_allocatorEv,"x"
	.linkonce discard
	.align 2
	.globl	_ZNKSt12_Vector_baseISt6vectorI4CellSaIS1_EESaIS3_EE19_M_get_Tp_allocatorEv
	.def	_ZNKSt12_Vector_baseISt6vectorI4CellSaIS1_EESaIS3_EE19_M_get_Tp_allocatorEv;	.scl	2;	.type	32;	.endef
	.seh_proc	_ZNKSt12_Vector_baseISt6vectorI4CellSaIS1_EESaIS3_EE19_M_get_Tp_allocatorEv
_ZNKSt12_Vector_baseISt6vectorI4CellSaIS1_EESaIS3_EE19_M_get_Tp_allocatorEv:
.LFB4731:
	pushq	%rbp
	.seh_pushreg	%rbp
	movq	%rsp, %rbp
	.seh_setframe	%rbp, 0
	.seh_endprologue
	movq	%rcx, 16(%rbp)
	movq	16(%rbp), %rax
	popq	%rbp
	ret
	.seh_endproc
	.section	.text$_ZNSt12_Vector_baseISt6vectorI4CellSaIS1_EESaIS3_EE12_Vector_implD1Ev,"x"
	.linkonce discard
	.align 2
	.globl	_ZNSt12_Vector_baseISt6vectorI4CellSaIS1_EESaIS3_EE12_Vector_implD1Ev
	.def	_ZNSt12_Vector_baseISt6vectorI4CellSaIS1_EESaIS3_EE12_Vector_implD1Ev;	.scl	2;	.type	32;	.endef
	.seh_proc	_ZNSt12_Vector_baseISt6vectorI4CellSaIS1_EESaIS3_EE12_Vector_implD1Ev
_ZNSt12_Vector_baseISt6vectorI4CellSaIS1_EESaIS3_EE12_Vector_implD1Ev:
.LFB4735:
	pushq	%rbp
	.seh_pushreg	%rbp
	movq	%rsp, %rbp
	.seh_setframe	%rbp, 0
	subq	$32, %rsp
	.seh_stackalloc	32
	.seh_endprologue
	movq	%rcx, 16(%rbp)
	movq	16(%rbp), %rcx
	call	_ZNSaISt6vectorI4CellSaIS0_EEED2Ev
	nop
	addq	$32, %rsp
	popq	%rbp
	ret
	.seh_endproc
	.section	.text$_ZNSt12_Vector_baseISt6vectorI4CellSaIS1_EESaIS3_EEC2EyRKS4_,"x"
	.linkonce discard
	.align 2
	.globl	_ZNSt12_Vector_baseISt6vectorI4CellSaIS1_EESaIS3_EEC2EyRKS4_
	.def	_ZNSt12_Vector_baseISt6vectorI4CellSaIS1_EESaIS3_EEC2EyRKS4_;	.scl	2;	.type	32;	.endef
	.seh_proc	_ZNSt12_Vector_baseISt6vectorI4CellSaIS1_EESaIS3_EEC2EyRKS4_
_ZNSt12_Vector_baseISt6vectorI4CellSaIS1_EESaIS3_EEC2EyRKS4_:
.LFB4736:
	pushq	%rbp
	.seh_pushreg	%rbp
	pushq	%rbx
	.seh_pushreg	%rbx
	subq	$40, %rsp
	.seh_stackalloc	40
	leaq	128(%rsp), %rbp
	.seh_setframe	%rbp, 128
	.seh_endprologue
	movq	%rcx, -64(%rbp)
	movq	%rdx, -56(%rbp)
	movq	%r8, -48(%rbp)
	movq	-64(%rbp), %rax
	movq	-48(%rbp), %rdx
	movq	%rax, %rcx
	call	_ZNSt12_Vector_baseISt6vectorI4CellSaIS1_EESaIS3_EE12_Vector_implC1ERKS4_
	movq	-56(%rbp), %rax
	movq	%rax, %rdx
	movq	-64(%rbp), %rcx
.LEHB79:
	call	_ZNSt12_Vector_baseISt6vectorI4CellSaIS1_EESaIS3_EE17_M_create_storageEy
.LEHE79:
	jmp	.L513
.L512:
	movq	%rax, %rbx
	movq	-64(%rbp), %rax
	movq	%rax, %rcx
	call	_ZNSt12_Vector_baseISt6vectorI4CellSaIS1_EESaIS3_EE12_Vector_implD1Ev
	movq	%rbx, %rax
	movq	%rax, %rcx
.LEHB80:
	call	_Unwind_Resume
	nop
.LEHE80:
.L513:
	addq	$40, %rsp
	popq	%rbx
	popq	%rbp
	ret
	.seh_handler	__gxx_personality_seh0, @unwind, @except
	.seh_handlerdata
.LLSDA4736:
	.byte	0xff
	.byte	0xff
	.byte	0x1
	.uleb128 .LLSDACSE4736-.LLSDACSB4736
.LLSDACSB4736:
	.uleb128 .LEHB79-.LFB4736
	.uleb128 .LEHE79-.LEHB79
	.uleb128 .L512-.LFB4736
	.uleb128 0
	.uleb128 .LEHB80-.LFB4736
	.uleb128 .LEHE80-.LEHB80
	.uleb128 0
	.uleb128 0
.LLSDACSE4736:
	.section	.text$_ZNSt12_Vector_baseISt6vectorI4CellSaIS1_EESaIS3_EEC2EyRKS4_,"x"
	.linkonce discard
	.seh_endproc
	.section	.text$_ZNSt12_Vector_baseISt6vectorI4CellSaIS1_EESaIS3_EED2Ev,"x"
	.linkonce discard
	.align 2
	.globl	_ZNSt12_Vector_baseISt6vectorI4CellSaIS1_EESaIS3_EED2Ev
	.def	_ZNSt12_Vector_baseISt6vectorI4CellSaIS1_EESaIS3_EED2Ev;	.scl	2;	.type	32;	.endef
	.seh_proc	_ZNSt12_Vector_baseISt6vectorI4CellSaIS1_EESaIS3_EED2Ev
_ZNSt12_Vector_baseISt6vectorI4CellSaIS1_EESaIS3_EED2Ev:
.LFB4739:
	pushq	%rbp
	.seh_pushreg	%rbp
	movq	%rsp, %rbp
	.seh_setframe	%rbp, 0
	subq	$32, %rsp
	.seh_stackalloc	32
	.seh_endprologue
	movq	%rcx, 16(%rbp)
	movq	16(%rbp), %rax
	movq	16(%rax), %rdx
	movq	16(%rbp), %rax
	movq	(%rax), %rax
	subq	%rax, %rdx
	movq	%rdx, %rax
	sarq	$3, %rax
	movq	%rax, %rdx
	movabsq	$-6148914691236517205, %rax
	imulq	%rdx, %rax
	movq	%rax, %rdx
	movq	16(%rbp), %rax
	movq	(%rax), %rax
	movq	%rdx, %r8
	movq	%rax, %rdx
	movq	16(%rbp), %rcx
	call	_ZNSt12_Vector_baseISt6vectorI4CellSaIS1_EESaIS3_EE13_M_deallocateEPS3_y
	movq	16(%rbp), %rax
	movq	%rax, %rcx
	call	_ZNSt12_Vector_baseISt6vectorI4CellSaIS1_EESaIS3_EE12_Vector_implD1Ev
	nop
	addq	$32, %rsp
	popq	%rbp
	ret
	.seh_handler	__gxx_personality_seh0, @unwind, @except
	.seh_handlerdata
.LLSDA4739:
	.byte	0xff
	.byte	0xff
	.byte	0x1
	.uleb128 .LLSDACSE4739-.LLSDACSB4739
.LLSDACSB4739:
.LLSDACSE4739:
	.section	.text$_ZNSt12_Vector_baseISt6vectorI4CellSaIS1_EESaIS3_EED2Ev,"x"
	.linkonce discard
	.seh_endproc
	.section	.text$_ZNKSt6vectorIS_I4CellSaIS0_EESaIS2_EE5beginEv,"x"
	.linkonce discard
	.align 2
	.globl	_ZNKSt6vectorIS_I4CellSaIS0_EESaIS2_EE5beginEv
	.def	_ZNKSt6vectorIS_I4CellSaIS0_EESaIS2_EE5beginEv;	.scl	2;	.type	32;	.endef
	.seh_proc	_ZNKSt6vectorIS_I4CellSaIS0_EESaIS2_EE5beginEv
_ZNKSt6vectorIS_I4CellSaIS0_EESaIS2_EE5beginEv:
.LFB4741:
	pushq	%rbp
	.seh_pushreg	%rbp
	movq	%rsp, %rbp
	.seh_setframe	%rbp, 0
	subq	$48, %rsp
	.seh_stackalloc	48
	.seh_endprologue
	movq	%rcx, 16(%rbp)
	movq	16(%rbp), %rax
	movq	(%rax), %rax
	movq	%rax, -8(%rbp)
	leaq	-8(%rbp), %rdx
	leaq	-16(%rbp), %rax
	movq	%rax, %rcx
	call	_ZN9__gnu_cxx17__normal_iteratorIPKSt6vectorI4CellSaIS2_EES1_IS4_SaIS4_EEEC1ERKS6_
	movq	-16(%rbp), %rax
	addq	$48, %rsp
	popq	%rbp
	ret
	.seh_endproc
	.section	.text$_ZNKSt6vectorIS_I4CellSaIS0_EESaIS2_EE3endEv,"x"
	.linkonce discard
	.align 2
	.globl	_ZNKSt6vectorIS_I4CellSaIS0_EESaIS2_EE3endEv
	.def	_ZNKSt6vectorIS_I4CellSaIS0_EESaIS2_EE3endEv;	.scl	2;	.type	32;	.endef
	.seh_proc	_ZNKSt6vectorIS_I4CellSaIS0_EESaIS2_EE3endEv
_ZNKSt6vectorIS_I4CellSaIS0_EESaIS2_EE3endEv:
.LFB4742:
	pushq	%rbp
	.seh_pushreg	%rbp
	movq	%rsp, %rbp
	.seh_setframe	%rbp, 0
	subq	$48, %rsp
	.seh_stackalloc	48
	.seh_endprologue
	movq	%rcx, 16(%rbp)
	movq	16(%rbp), %rax
	movq	8(%rax), %rax
	movq	%rax, -8(%rbp)
	leaq	-8(%rbp), %rdx
	leaq	-16(%rbp), %rax
	movq	%rax, %rcx
	call	_ZN9__gnu_cxx17__normal_iteratorIPKSt6vectorI4CellSaIS2_EES1_IS4_SaIS4_EEEC1ERKS6_
	movq	-16(%rbp), %rax
	addq	$48, %rsp
	popq	%rbp
	ret
	.seh_endproc
	.section	.text$_ZNSt12_Vector_baseISt6vectorI4CellSaIS1_EESaIS3_EE19_M_get_Tp_allocatorEv,"x"
	.linkonce discard
	.align 2
	.globl	_ZNSt12_Vector_baseISt6vectorI4CellSaIS1_EESaIS3_EE19_M_get_Tp_allocatorEv
	.def	_ZNSt12_Vector_baseISt6vectorI4CellSaIS1_EESaIS3_EE19_M_get_Tp_allocatorEv;	.scl	2;	.type	32;	.endef
	.seh_proc	_ZNSt12_Vector_baseISt6vectorI4CellSaIS1_EESaIS3_EE19_M_get_Tp_allocatorEv
_ZNSt12_Vector_baseISt6vectorI4CellSaIS1_EESaIS3_EE19_M_get_Tp_allocatorEv:
.LFB4743:
	pushq	%rbp
	.seh_pushreg	%rbp
	movq	%rsp, %rbp
	.seh_setframe	%rbp, 0
	.seh_endprologue
	movq	%rcx, 16(%rbp)
	movq	16(%rbp), %rax
	popq	%rbp
	ret
	.seh_endproc
	.section	.text$_ZSt22__uninitialized_copy_aIN9__gnu_cxx17__normal_iteratorIPKSt6vectorI4CellSaIS3_EES2_IS5_SaIS5_EEEEPS5_S5_ET0_T_SD_SC_RSaIT1_E,"x"
	.linkonce discard
	.globl	_ZSt22__uninitialized_copy_aIN9__gnu_cxx17__normal_iteratorIPKSt6vectorI4CellSaIS3_EES2_IS5_SaIS5_EEEEPS5_S5_ET0_T_SD_SC_RSaIT1_E
	.def	_ZSt22__uninitialized_copy_aIN9__gnu_cxx17__normal_iteratorIPKSt6vectorI4CellSaIS3_EES2_IS5_SaIS5_EEEEPS5_S5_ET0_T_SD_SC_RSaIT1_E;	.scl	2;	.type	32;	.endef
	.seh_proc	_ZSt22__uninitialized_copy_aIN9__gnu_cxx17__normal_iteratorIPKSt6vectorI4CellSaIS3_EES2_IS5_SaIS5_EEEEPS5_S5_ET0_T_SD_SC_RSaIT1_E
_ZSt22__uninitialized_copy_aIN9__gnu_cxx17__normal_iteratorIPKSt6vectorI4CellSaIS3_EES2_IS5_SaIS5_EEEEPS5_S5_ET0_T_SD_SC_RSaIT1_E:
.LFB4744:
	pushq	%rbp
	.seh_pushreg	%rbp
	movq	%rsp, %rbp
	.seh_setframe	%rbp, 0
	subq	$32, %rsp
	.seh_stackalloc	32
	.seh_endprologue
	movq	%rcx, 16(%rbp)
	movq	%rdx, 24(%rbp)
	movq	%r8, 32(%rbp)
	movq	%r9, 40(%rbp)
	movq	32(%rbp), %rdx
	movq	24(%rbp), %rax
	movq	%rdx, %r8
	movq	%rax, %rdx
	movq	16(%rbp), %rcx
	call	_ZSt18uninitialized_copyIN9__gnu_cxx17__normal_iteratorIPKSt6vectorI4CellSaIS3_EES2_IS5_SaIS5_EEEEPS5_ET0_T_SD_SC_
	addq	$32, %rsp
	popq	%rbp
	ret
	.seh_endproc
	.section	.text$_ZSt8_DestroyIPSt6vectorI4CellSaIS1_EES3_EvT_S5_RSaIT0_E,"x"
	.linkonce discard
	.globl	_ZSt8_DestroyIPSt6vectorI4CellSaIS1_EES3_EvT_S5_RSaIT0_E
	.def	_ZSt8_DestroyIPSt6vectorI4CellSaIS1_EES3_EvT_S5_RSaIT0_E;	.scl	2;	.type	32;	.endef
	.seh_proc	_ZSt8_DestroyIPSt6vectorI4CellSaIS1_EES3_EvT_S5_RSaIT0_E
_ZSt8_DestroyIPSt6vectorI4CellSaIS1_EES3_EvT_S5_RSaIT0_E:
.LFB4745:
	pushq	%rbp
	.seh_pushreg	%rbp
	movq	%rsp, %rbp
	.seh_setframe	%rbp, 0
	subq	$32, %rsp
	.seh_stackalloc	32
	.seh_endprologue
	movq	%rcx, 16(%rbp)
	movq	%rdx, 24(%rbp)
	movq	%r8, 32(%rbp)
	movq	24(%rbp), %rax
	movq	%rax, %rdx
	movq	16(%rbp), %rcx
	call	_ZSt8_DestroyIPSt6vectorI4CellSaIS1_EEEvT_S5_
	nop
	addq	$32, %rsp
	popq	%rbp
	ret
	.seh_endproc
	.section	.text$_ZNSt12_Vector_baseISt10shared_ptrI4EdgeESaIS2_EE12_Vector_implD1Ev,"x"
	.linkonce discard
	.align 2
	.globl	_ZNSt12_Vector_baseISt10shared_ptrI4EdgeESaIS2_EE12_Vector_implD1Ev
	.def	_ZNSt12_Vector_baseISt10shared_ptrI4EdgeESaIS2_EE12_Vector_implD1Ev;	.scl	2;	.type	32;	.endef
	.seh_proc	_ZNSt12_Vector_baseISt10shared_ptrI4EdgeESaIS2_EE12_Vector_implD1Ev
_ZNSt12_Vector_baseISt10shared_ptrI4EdgeESaIS2_EE12_Vector_implD1Ev:
.LFB4749:
	pushq	%rbp
	.seh_pushreg	%rbp
	movq	%rsp, %rbp
	.seh_setframe	%rbp, 0
	subq	$32, %rsp
	.seh_stackalloc	32
	.seh_endprologue
	movq	%rcx, 16(%rbp)
	movq	16(%rbp), %rcx
	call	_ZNSaISt10shared_ptrI4EdgeEED2Ev
	nop
	addq	$32, %rsp
	popq	%rbp
	ret
	.seh_endproc
	.section	.text$_ZNSt12_Vector_baseISt10shared_ptrI4EdgeESaIS2_EEC2Ev,"x"
	.linkonce discard
	.align 2
	.globl	_ZNSt12_Vector_baseISt10shared_ptrI4EdgeESaIS2_EEC2Ev
	.def	_ZNSt12_Vector_baseISt10shared_ptrI4EdgeESaIS2_EEC2Ev;	.scl	2;	.type	32;	.endef
	.seh_proc	_ZNSt12_Vector_baseISt10shared_ptrI4EdgeESaIS2_EEC2Ev
_ZNSt12_Vector_baseISt10shared_ptrI4EdgeESaIS2_EEC2Ev:
.LFB4750:
	pushq	%rbp
	.seh_pushreg	%rbp
	movq	%rsp, %rbp
	.seh_setframe	%rbp, 0
	subq	$32, %rsp
	.seh_stackalloc	32
	.seh_endprologue
	movq	%rcx, 16(%rbp)
	movq	16(%rbp), %rax
	movq	%rax, %rcx
	call	_ZNSt12_Vector_baseISt10shared_ptrI4EdgeESaIS2_EE12_Vector_implC1Ev
	nop
	addq	$32, %rsp
	popq	%rbp
	ret
	.seh_endproc
	.section	.text$_ZNSt12_Vector_baseISt10shared_ptrI4EdgeESaIS2_EED2Ev,"x"
	.linkonce discard
	.align 2
	.globl	_ZNSt12_Vector_baseISt10shared_ptrI4EdgeESaIS2_EED2Ev
	.def	_ZNSt12_Vector_baseISt10shared_ptrI4EdgeESaIS2_EED2Ev;	.scl	2;	.type	32;	.endef
	.seh_proc	_ZNSt12_Vector_baseISt10shared_ptrI4EdgeESaIS2_EED2Ev
_ZNSt12_Vector_baseISt10shared_ptrI4EdgeESaIS2_EED2Ev:
.LFB4753:
	pushq	%rbp
	.seh_pushreg	%rbp
	movq	%rsp, %rbp
	.seh_setframe	%rbp, 0
	subq	$32, %rsp
	.seh_stackalloc	32
	.seh_endprologue
	movq	%rcx, 16(%rbp)
	movq	16(%rbp), %rax
	movq	16(%rax), %rdx
	movq	16(%rbp), %rax
	movq	(%rax), %rax
	subq	%rax, %rdx
	movq	%rdx, %rax
	sarq	$4, %rax
	movq	%rax, %rdx
	movq	16(%rbp), %rax
	movq	(%rax), %rax
	movq	%rdx, %r8
	movq	%rax, %rdx
	movq	16(%rbp), %rcx
	call	_ZNSt12_Vector_baseISt10shared_ptrI4EdgeESaIS2_EE13_M_deallocateEPS2_y
	movq	16(%rbp), %rax
	movq	%rax, %rcx
	call	_ZNSt12_Vector_baseISt10shared_ptrI4EdgeESaIS2_EE12_Vector_implD1Ev
	nop
	addq	$32, %rsp
	popq	%rbp
	ret
	.seh_handler	__gxx_personality_seh0, @unwind, @except
	.seh_handlerdata
.LLSDA4753:
	.byte	0xff
	.byte	0xff
	.byte	0x1
	.uleb128 .LLSDACSE4753-.LLSDACSB4753
.LLSDACSB4753:
.LLSDACSE4753:
	.section	.text$_ZNSt12_Vector_baseISt10shared_ptrI4EdgeESaIS2_EED2Ev,"x"
	.linkonce discard
	.seh_endproc
	.section	.text$_ZNSt12_Vector_baseISt10shared_ptrI4EdgeESaIS2_EE19_M_get_Tp_allocatorEv,"x"
	.linkonce discard
	.align 2
	.globl	_ZNSt12_Vector_baseISt10shared_ptrI4EdgeESaIS2_EE19_M_get_Tp_allocatorEv
	.def	_ZNSt12_Vector_baseISt10shared_ptrI4EdgeESaIS2_EE19_M_get_Tp_allocatorEv;	.scl	2;	.type	32;	.endef
	.seh_proc	_ZNSt12_Vector_baseISt10shared_ptrI4EdgeESaIS2_EE19_M_get_Tp_allocatorEv
_ZNSt12_Vector_baseISt10shared_ptrI4EdgeESaIS2_EE19_M_get_Tp_allocatorEv:
.LFB4755:
	pushq	%rbp
	.seh_pushreg	%rbp
	movq	%rsp, %rbp
	.seh_setframe	%rbp, 0
	.seh_endprologue
	movq	%rcx, 16(%rbp)
	movq	16(%rbp), %rax
	popq	%rbp
	ret
	.seh_endproc
	.section	.text$_ZSt8_DestroyIPSt10shared_ptrI4EdgeES2_EvT_S4_RSaIT0_E,"x"
	.linkonce discard
	.globl	_ZSt8_DestroyIPSt10shared_ptrI4EdgeES2_EvT_S4_RSaIT0_E
	.def	_ZSt8_DestroyIPSt10shared_ptrI4EdgeES2_EvT_S4_RSaIT0_E;	.scl	2;	.type	32;	.endef
	.seh_proc	_ZSt8_DestroyIPSt10shared_ptrI4EdgeES2_EvT_S4_RSaIT0_E
_ZSt8_DestroyIPSt10shared_ptrI4EdgeES2_EvT_S4_RSaIT0_E:
.LFB4756:
	pushq	%rbp
	.seh_pushreg	%rbp
	movq	%rsp, %rbp
	.seh_setframe	%rbp, 0
	subq	$32, %rsp
	.seh_stackalloc	32
	.seh_endprologue
	movq	%rcx, 16(%rbp)
	movq	%rdx, 24(%rbp)
	movq	%r8, 32(%rbp)
	movq	24(%rbp), %rax
	movq	%rax, %rdx
	movq	16(%rbp), %rcx
	call	_ZSt8_DestroyIPSt10shared_ptrI4EdgeEEvT_S4_
	nop
	addq	$32, %rsp
	popq	%rbp
	ret
	.seh_endproc
	.section	.text$_ZNSt6vectorISt10shared_ptrI4EdgeESaIS2_EE15_M_erase_at_endEPS2_,"x"
	.linkonce discard
	.align 2
	.globl	_ZNSt6vectorISt10shared_ptrI4EdgeESaIS2_EE15_M_erase_at_endEPS2_
	.def	_ZNSt6vectorISt10shared_ptrI4EdgeESaIS2_EE15_M_erase_at_endEPS2_;	.scl	2;	.type	32;	.endef
	.seh_proc	_ZNSt6vectorISt10shared_ptrI4EdgeESaIS2_EE15_M_erase_at_endEPS2_
_ZNSt6vectorISt10shared_ptrI4EdgeESaIS2_EE15_M_erase_at_endEPS2_:
.LFB4757:
	pushq	%rbp
	.seh_pushreg	%rbp
	movq	%rsp, %rbp
	.seh_setframe	%rbp, 0
	subq	$48, %rsp
	.seh_stackalloc	48
	.seh_endprologue
	movq	%rcx, 16(%rbp)
	movq	%rdx, 24(%rbp)
	movq	16(%rbp), %rax
	movq	8(%rax), %rax
	subq	24(%rbp), %rax
	sarq	$4, %rax
	movq	%rax, -8(%rbp)
	cmpq	$0, -8(%rbp)
	je	.L532
	movq	16(%rbp), %rax
	movq	%rax, %rcx
	call	_ZNSt12_Vector_baseISt10shared_ptrI4EdgeESaIS2_EE19_M_get_Tp_allocatorEv
	movq	%rax, %rcx
	movq	16(%rbp), %rax
	movq	8(%rax), %rdx
	movq	24(%rbp), %rax
	movq	%rcx, %r8
	movq	%rax, %rcx
	call	_ZSt8_DestroyIPSt10shared_ptrI4EdgeES2_EvT_S4_RSaIT0_E
	movq	16(%rbp), %rax
	movq	24(%rbp), %rdx
	movq	%rdx, 8(%rax)
.L532:
	nop
	addq	$48, %rsp
	popq	%rbp
	ret
	.seh_handler	__gxx_personality_seh0, @unwind, @except
	.seh_handlerdata
.LLSDA4757:
	.byte	0xff
	.byte	0xff
	.byte	0x1
	.uleb128 .LLSDACSE4757-.LLSDACSB4757
.LLSDACSB4757:
.LLSDACSE4757:
	.section	.text$_ZNSt6vectorISt10shared_ptrI4EdgeESaIS2_EE15_M_erase_at_endEPS2_,"x"
	.linkonce discard
	.seh_endproc
	.section	.text$_ZNSt14__array_traitsIbLy4EE6_S_refERA4_Kby,"x"
	.linkonce discard
	.globl	_ZNSt14__array_traitsIbLy4EE6_S_refERA4_Kby
	.def	_ZNSt14__array_traitsIbLy4EE6_S_refERA4_Kby;	.scl	2;	.type	32;	.endef
	.seh_proc	_ZNSt14__array_traitsIbLy4EE6_S_refERA4_Kby
_ZNSt14__array_traitsIbLy4EE6_S_refERA4_Kby:
.LFB4758:
	pushq	%rbp
	.seh_pushreg	%rbp
	movq	%rsp, %rbp
	.seh_setframe	%rbp, 0
	.seh_endprologue
	movq	%rcx, 16(%rbp)
	movq	%rdx, 24(%rbp)
	movq	16(%rbp), %rdx
	movq	24(%rbp), %rax
	addq	%rdx, %rax
	popq	%rbp
	ret
	.seh_endproc
	.section	.text$_ZNSt14__array_traitsISt10shared_ptrI4EdgeELy4EE6_S_refERA4_KS2_y,"x"
	.linkonce discard
	.globl	_ZNSt14__array_traitsISt10shared_ptrI4EdgeELy4EE6_S_refERA4_KS2_y
	.def	_ZNSt14__array_traitsISt10shared_ptrI4EdgeELy4EE6_S_refERA4_KS2_y;	.scl	2;	.type	32;	.endef
	.seh_proc	_ZNSt14__array_traitsISt10shared_ptrI4EdgeELy4EE6_S_refERA4_KS2_y
_ZNSt14__array_traitsISt10shared_ptrI4EdgeELy4EE6_S_refERA4_KS2_y:
.LFB4759:
	pushq	%rbp
	.seh_pushreg	%rbp
	movq	%rsp, %rbp
	.seh_setframe	%rbp, 0
	.seh_endprologue
	movq	%rcx, 16(%rbp)
	movq	%rdx, 24(%rbp)
	movq	24(%rbp), %rax
	salq	$4, %rax
	movq	%rax, %rdx
	movq	16(%rbp), %rax
	addq	%rdx, %rax
	popq	%rbp
	ret
	.seh_endproc
	.section	.text$_ZNSt16_Sp_counted_baseILN9__gnu_cxx12_Lock_policyE2EE15_M_add_ref_copyEv,"x"
	.linkonce discard
	.align 2
	.globl	_ZNSt16_Sp_counted_baseILN9__gnu_cxx12_Lock_policyE2EE15_M_add_ref_copyEv
	.def	_ZNSt16_Sp_counted_baseILN9__gnu_cxx12_Lock_policyE2EE15_M_add_ref_copyEv;	.scl	2;	.type	32;	.endef
	.seh_proc	_ZNSt16_Sp_counted_baseILN9__gnu_cxx12_Lock_policyE2EE15_M_add_ref_copyEv
_ZNSt16_Sp_counted_baseILN9__gnu_cxx12_Lock_policyE2EE15_M_add_ref_copyEv:
.LFB4760:
	pushq	%rbp
	.seh_pushreg	%rbp
	movq	%rsp, %rbp
	.seh_setframe	%rbp, 0
	subq	$32, %rsp
	.seh_stackalloc	32
	.seh_endprologue
	movq	%rcx, 16(%rbp)
	movq	16(%rbp), %rax
	addq	$8, %rax
	movl	$1, %edx
	movq	%rax, %rcx
	call	_ZN9__gnu_cxxL21__atomic_add_dispatchEPii
	nop
	addq	$32, %rsp
	popq	%rbp
	ret
	.seh_endproc
	.section	.text$_ZNSaI4EdgeEC1Ev,"x"
	.linkonce discard
	.align 2
	.globl	_ZNSaI4EdgeEC1Ev
	.def	_ZNSaI4EdgeEC1Ev;	.scl	2;	.type	32;	.endef
	.seh_proc	_ZNSaI4EdgeEC1Ev
_ZNSaI4EdgeEC1Ev:
.LFB4763:
	pushq	%rbp
	.seh_pushreg	%rbp
	movq	%rsp, %rbp
	.seh_setframe	%rbp, 0
	subq	$32, %rsp
	.seh_stackalloc	32
	.seh_endprologue
	movq	%rcx, 16(%rbp)
	movq	16(%rbp), %rcx
	call	_ZN9__gnu_cxx13new_allocatorI4EdgeEC2Ev
	nop
	addq	$32, %rsp
	popq	%rbp
	ret
	.seh_endproc
	.section	.text$_ZNSaI4EdgeED2Ev,"x"
	.linkonce discard
	.align 2
	.globl	_ZNSaI4EdgeED2Ev
	.def	_ZNSaI4EdgeED2Ev;	.scl	2;	.type	32;	.endef
	.seh_proc	_ZNSaI4EdgeED2Ev
_ZNSaI4EdgeED2Ev:
.LFB4765:
	pushq	%rbp
	.seh_pushreg	%rbp
	movq	%rsp, %rbp
	.seh_setframe	%rbp, 0
	subq	$32, %rsp
	.seh_stackalloc	32
	.seh_endprologue
	movq	%rcx, 16(%rbp)
	movq	16(%rbp), %rcx
	call	_ZN9__gnu_cxx13new_allocatorI4EdgeED2Ev
	nop
	addq	$32, %rsp
	popq	%rbp
	ret
	.seh_endproc
	.section	.text$_ZNSaI4EdgeED1Ev,"x"
	.linkonce discard
	.align 2
	.globl	_ZNSaI4EdgeED1Ev
	.def	_ZNSaI4EdgeED1Ev;	.scl	2;	.type	32;	.endef
	.seh_proc	_ZNSaI4EdgeED1Ev
_ZNSaI4EdgeED1Ev:
.LFB4766:
	pushq	%rbp
	.seh_pushreg	%rbp
	movq	%rsp, %rbp
	.seh_setframe	%rbp, 0
	subq	$32, %rsp
	.seh_stackalloc	32
	.seh_endprologue
	movq	%rcx, 16(%rbp)
	movq	16(%rbp), %rcx
	call	_ZN9__gnu_cxx13new_allocatorI4EdgeED2Ev
	nop
	addq	$32, %rsp
	popq	%rbp
	ret
	.seh_endproc
	.section	.text$_ZSt7forwardIiEOT_RNSt16remove_referenceIS0_E4typeE,"x"
	.linkonce discard
	.globl	_ZSt7forwardIiEOT_RNSt16remove_referenceIS0_E4typeE
	.def	_ZSt7forwardIiEOT_RNSt16remove_referenceIS0_E4typeE;	.scl	2;	.type	32;	.endef
	.seh_proc	_ZSt7forwardIiEOT_RNSt16remove_referenceIS0_E4typeE
_ZSt7forwardIiEOT_RNSt16remove_referenceIS0_E4typeE:
.LFB4767:
	pushq	%rbp
	.seh_pushreg	%rbp
	movq	%rsp, %rbp
	.seh_setframe	%rbp, 0
	.seh_endprologue
	movq	%rcx, 16(%rbp)
	movq	16(%rbp), %rax
	popq	%rbp
	ret
	.seh_endproc
	.section	.text$_ZSt15allocate_sharedI4EdgeSaIS0_EJiiiiEESt10shared_ptrIT_ERKT0_DpOT1_,"x"
	.linkonce discard
	.globl	_ZSt15allocate_sharedI4EdgeSaIS0_EJiiiiEESt10shared_ptrIT_ERKT0_DpOT1_
	.def	_ZSt15allocate_sharedI4EdgeSaIS0_EJiiiiEESt10shared_ptrIT_ERKT0_DpOT1_;	.scl	2;	.type	32;	.endef
	.seh_proc	_ZSt15allocate_sharedI4EdgeSaIS0_EJiiiiEESt10shared_ptrIT_ERKT0_DpOT1_
_ZSt15allocate_sharedI4EdgeSaIS0_EJiiiiEESt10shared_ptrIT_ERKT0_DpOT1_:
.LFB4768:
	pushq	%rbp
	.seh_pushreg	%rbp
	pushq	%r12
	.seh_pushreg	%r12
	pushq	%rdi
	.seh_pushreg	%rdi
	pushq	%rsi
	.seh_pushreg	%rsi
	pushq	%rbx
	.seh_pushreg	%rbx
	movq	%rsp, %rbp
	.seh_setframe	%rbp, 0
	subq	$80, %rsp
	.seh_stackalloc	80
	.seh_endprologue
	movq	%rcx, 48(%rbp)
	movq	%rdx, 56(%rbp)
	movq	%r8, 64(%rbp)
	movq	%r9, 72(%rbp)
	movq	88(%rbp), %rax
	movq	%rax, %rcx
	call	_ZSt7forwardIiEOT_RNSt16remove_referenceIS0_E4typeE
	movq	%rax, %rdi
	movq	80(%rbp), %rax
	movq	%rax, %rcx
	call	_ZSt7forwardIiEOT_RNSt16remove_referenceIS0_E4typeE
	movq	%rax, %rsi
	movq	72(%rbp), %rax
	movq	%rax, %rcx
	call	_ZSt7forwardIiEOT_RNSt16remove_referenceIS0_E4typeE
	movq	%rax, %rbx
	movq	64(%rbp), %rax
	movq	%rax, %rcx
	call	_ZSt7forwardIiEOT_RNSt16remove_referenceIS0_E4typeE
	movq	%rax, %rdx
	movq	56(%rbp), %rax
	movq	%rdi, 48(%rsp)
	movq	%rsi, 40(%rsp)
	movq	%rbx, 32(%rsp)
	movq	%rdx, %r9
	movq	%rax, %r8
	movl	%r12d, %edx
	movq	48(%rbp), %rcx
	call	_ZNSt10shared_ptrI4EdgeEC1ISaIS0_EJiiiiEEESt19_Sp_make_shared_tagRKT_DpOT0_
	movq	48(%rbp), %rax
	addq	$80, %rsp
	popq	%rbx
	popq	%rsi
	popq	%rdi
	popq	%r12
	popq	%rbp
	ret
	.seh_endproc
	.section	.text$_ZNSt12__shared_ptrI4EdgeLN9__gnu_cxx12_Lock_policyE2EEC2EOS3_,"x"
	.linkonce discard
	.align 2
	.globl	_ZNSt12__shared_ptrI4EdgeLN9__gnu_cxx12_Lock_policyE2EEC2EOS3_
